	.text
	.syntax unified
	.eabi_attribute	67, "2.09"	@ Tag_conformance
	.cpu	cortex-a8
	.eabi_attribute	6, 10	@ Tag_CPU_arch
	.eabi_attribute	7, 65	@ Tag_CPU_arch_profile
	.eabi_attribute	8, 1	@ Tag_ARM_ISA_use
	.eabi_attribute	9, 2	@ Tag_THUMB_ISA_use
	.fpu	neon
	.eabi_attribute	17, 1	@ Tag_ABI_PCS_GOT_use
	.eabi_attribute	20, 2	@ Tag_ABI_FP_denormal
	.eabi_attribute	23, 1	@ Tag_ABI_FP_number_model
	.eabi_attribute	34, 1	@ Tag_CPU_unaligned_access
	.eabi_attribute	24, 1	@ Tag_ABI_align_needed
	.eabi_attribute	25, 1	@ Tag_ABI_align_preserved
	.eabi_attribute	28, 1	@ Tag_ABI_VFP_args
	.eabi_attribute	38, 1	@ Tag_ABI_FP_16bit_format
	.eabi_attribute	18, 4	@ Tag_ABI_PCS_wchar_t
	.eabi_attribute	26, 2	@ Tag_ABI_enum_size
	.eabi_attribute	14, 0	@ Tag_ABI_PCS_R9_use
	.eabi_attribute	68, 1	@ Tag_Virtualization_use
	.file	"/root/Bela/projects/pedal_chain/build/Distortion.bc"
	.file	1 "/usr/bin/../lib/gcc/arm-linux-gnueabihf/6.3.0/../../../../include/arm-linux-gnueabihf/c++/6.3.0/bits" "c++config.h"
	.file	2 "/usr/bin/../lib/gcc/arm-linux-gnueabihf/6.3.0/../../../../include/c++/6.3.0/ext" "concurrence.h"
	.file	3 "/usr/bin/../lib/gcc/arm-linux-gnueabihf/6.3.0/../../../../include/c++/6.3.0/debug" "debug.h"
	.file	4 "/usr/include" "wchar.h"
	.file	5 "/usr/lib/llvm-3.9/bin/../lib/clang/3.9.1/include" "stddef.h"
	.file	6 "/usr/include" "libio.h"
	.file	7 "/usr/include/arm-linux-gnueabihf/bits" "types.h"
	.file	8 "/usr/include" "stdio.h"
	.file	9 "/usr/lib/llvm-3.9/bin/../lib/clang/3.9.1/include" "stdarg.h"
	.file	10 "/usr/include" "stdint.h"
	.file	11 "/usr/bin/../lib/gcc/arm-linux-gnueabihf/6.3.0/../../../../include/c++/6.3.0/bits" "exception_ptr.h"
	.file	12 "/usr/include" "locale.h"
	.file	13 "/usr/include" "ctype.h"
	.file	14 "/usr/include" "stdlib.h"
	.file	15 "/usr/include/arm-linux-gnueabihf/bits" "stdlib-float.h"
	.file	16 "/usr/include/arm-linux-gnueabihf/bits" "stdlib-bsearch.h"
	.file	17 "/usr/bin/../lib/gcc/arm-linux-gnueabihf/6.3.0/../../../../include/c++/6.3.0" "cstdlib"
	.file	18 "/usr/include" "_G_config.h"
	.file	19 "/usr/include/arm-linux-gnueabihf/bits" "stdio.h"
	.file	20 "/usr/include" "time.h"
	.file	21 "/usr/include/arm-linux-gnueabihf/bits" "math-finite.h"
	.file	22 "/usr/include/arm-linux-gnueabihf/bits" "mathcalls.h"
	.file	23 "/usr/include/arm-linux-gnueabihf/bits" "mathdef.h"
	.globl	_ZN10Distortion7processEff
	.p2align	3
	.type	_ZN10Distortion7processEff,%function
_ZN10Distortion7processEff:             @ @_ZN10Distortion7processEff
.Lfunc_begin0:
	.file	24 "/root/Bela/projects/pedal_chain" "Distortion.cpp"
	.loc	24 21 0                 @ /root/Bela/projects/pedal_chain/Distortion.cpp:21:0
	.fnstart
	.cfi_startproc
@ BB#0:
	.save	{r11, lr}
	push	{r11, lr}
.Ltmp0:
	.cfi_def_cfa_offset 8
.Ltmp1:
	.cfi_offset lr, -4
.Ltmp2:
	.cfi_offset r11, -8
	.setfp	r11, sp
	mov	r11, sp
.Ltmp3:
	.cfi_def_cfa_register r11
	.vsave	{d8, d9, d10, d11}
	vpush	{d8, d9, d10, d11}
.Ltmp4:
	.cfi_offset d11, -16
.Ltmp5:
	.cfi_offset d10, -24
.Ltmp6:
	.cfi_offset d9, -32
.Ltmp7:
	.cfi_offset d8, -40
	@DEBUG_VALUE: process:this <- %R0
	@DEBUG_VALUE: process:in <- %S0
	@DEBUG_VALUE: process:value <- %S1
	vmov.f64	d8, d0
.Ltmp8:
	@DEBUG_VALUE: process:in <- %S16
	mov	r0, #0
.Ltmp9:
	vmov.f32	s18, s1
.Ltmp10:
	@DEBUG_VALUE: process:value <- %S18
	.file	25 "./include" "Utilities.h"
	.loc	25 73 44 prologue_end   @ ./include/Utilities.h:73:44
	vldr	s0, .LCPI0_0
.Ltmp11:
	.loc	24 23 36                @ /root/Bela/projects/pedal_chain/Distortion.cpp:23:36
	vldr	d18, .LCPI0_1
.Ltmp12:
	.loc	25 73 44                @ ./include/Utilities.h:73:44
	vmul.f32	d16, d8, d0
.Ltmp13:
	@DEBUG_VALUE: process:distort_value <- undef
	.loc	24 23 19                @ /root/Bela/projects/pedal_chain/Distortion.cpp:23:19
	vmov.i32	d0, #0x0
	.loc	24 23 41 is_stmt 0      @ /root/Bela/projects/pedal_chain/Distortion.cpp:23:41
	vmov.f64	d10, #1.000000e+00
	.loc	24 23 19                @ /root/Bela/projects/pedal_chain/Distortion.cpp:23:19
	vcmpe.f32	s16, s0
	vmrs	APSR_nzcv, fpscr
	.loc	24 23 24                @ /root/Bela/projects/pedal_chain/Distortion.cpp:23:24
	vcmpe.f32	s16, #0
	.loc	24 23 60                @ /root/Bela/projects/pedal_chain/Distortion.cpp:23:60
	vmul.f32	d16, d16, d9
	.loc	24 23 52 discriminator 1 @ /root/Bela/projects/pedal_chain/Distortion.cpp:23:52
	vabs.f32	d1, d16
	vcvt.f64.f32	d16, s2
.Ltmp14:
	@DEBUG_VALUE: map:out_max <- 1.000000e+03
	@DEBUG_VALUE: map:out_min <- 0.000000e+00
	@DEBUG_VALUE: map:in_max <- 1.000000e+00
	@DEBUG_VALUE: map:in_min <- 0.000000e+00
	.loc	24 23 19                @ /root/Bela/projects/pedal_chain/Distortion.cpp:23:19
	movwgt	r0, #1
	.loc	24 23 24                @ /root/Bela/projects/pedal_chain/Distortion.cpp:23:24
	vmrs	APSR_nzcv, fpscr
	sublt	r0, r0, #1
	.loc	24 23 14                @ /root/Bela/projects/pedal_chain/Distortion.cpp:23:14
	vmov	s0, r0
	vcvt.f64.s32	d17, s0
	.loc	24 23 50                @ /root/Bela/projects/pedal_chain/Distortion.cpp:23:50
	vneg.f64	d0, d16
	.loc	24 23 36                @ /root/Bela/projects/pedal_chain/Distortion.cpp:23:36
	vmul.f64	d11, d17, d18
	.loc	24 23 43 discriminator 2 @ /root/Bela/projects/pedal_chain/Distortion.cpp:23:43
	bl	__exp_finite
	.loc	24 23 41                @ /root/Bela/projects/pedal_chain/Distortion.cpp:23:41
	vsub.f64	d16, d10, d0
	.loc	24 23 79                @ /root/Bela/projects/pedal_chain/Distortion.cpp:23:79
	vmul.f64	d16, d11, d16
	.loc	24 23 14                @ /root/Bela/projects/pedal_chain/Distortion.cpp:23:14
	vcvt.f32.f64	s0, d16
.Ltmp15:
	@DEBUG_VALUE: process:out <- %S0
	.loc	24 24 14 is_stmt 1      @ /root/Bela/projects/pedal_chain/Distortion.cpp:24:14
	vmov.f32	d16, #1.000000e+00
	.loc	24 24 36 is_stmt 0      @ /root/Bela/projects/pedal_chain/Distortion.cpp:24:36
	vmul.f32	d17, d0, d9
	.loc	24 24 14                @ /root/Bela/projects/pedal_chain/Distortion.cpp:24:14
	vsub.f32	d16, d16, d9
	.loc	24 24 23                @ /root/Bela/projects/pedal_chain/Distortion.cpp:24:23
	vmul.f32	d16, d16, d8
	.loc	24 24 28                @ /root/Bela/projects/pedal_chain/Distortion.cpp:24:28
	vadd.f32	d0, d17, d16
.Ltmp16:
	@DEBUG_VALUE: process:out <- %S0
	.loc	24 25 5 is_stmt 1       @ /root/Bela/projects/pedal_chain/Distortion.cpp:25:5
                                        @ kill: %S0<def> %S0<kill> %D0<kill>
.Ltmp17:
	vpop	{d8, d9, d10, d11}
.Ltmp18:
	pop	{r11, pc}
.Ltmp19:
	.p2align	3
@ BB#1:
.LCPI0_1:
	.long	1202590843              @ double 0.01
	.long	1065646817
.LCPI0_0:
	.long	1148846080              @ float 1000
.Lfunc_end0:
	.size	_ZN10Distortion7processEff, .Lfunc_end0-_ZN10Distortion7processEff
	.cfi_endproc
	.file	26 "/usr/bin/../lib/gcc/arm-linux-gnueabihf/6.3.0/../../../../include/c++/6.3.0/bits" "alloc_traits.h"
	.file	27 "/usr/bin/../lib/gcc/arm-linux-gnueabihf/6.3.0/../../../../include/c++/6.3.0/ext" "new_allocator.h"
	.file	28 "/usr/bin/../lib/gcc/arm-linux-gnueabihf/6.3.0/../../../../include/arm-linux-gnueabihf/c++/6.3.0/bits" "c++allocator.h"
	.file	29 "/usr/bin/../lib/gcc/arm-linux-gnueabihf/6.3.0/../../../../include/c++/6.3.0/bits" "allocator.h"
	.file	30 "/usr/bin/../lib/gcc/arm-linux-gnueabihf/6.3.0/../../../../include/c++/6.3.0/ext" "alloc_traits.h"
	.file	31 "/usr/bin/../lib/gcc/arm-linux-gnueabihf/6.3.0/../../../../include/c++/6.3.0/bits" "stl_vector.h"
	.file	32 "/usr/bin/../lib/gcc/arm-linux-gnueabihf/6.3.0/../../../../include/c++/6.3.0" "type_traits"
	.file	33 "/root/Bela/projects/pedal_chain" "Distortion.h"
	.fnend

	.section	".note.GNU-stack","",%progbits
	.eabi_attribute	30, 2	@ Tag_ABI_optimization_goals