	.text
	.syntax unified
	.eabi_attribute	67, "2.09"	@ Tag_conformance
	.cpu	cortex-a8
	.eabi_attribute	6, 10	@ Tag_CPU_arch
	.eabi_attribute	7, 65	@ Tag_CPU_arch_profile
	.eabi_attribute	8, 1	@ Tag_ARM_ISA_use
	.eabi_attribute	9, 2	@ Tag_THUMB_ISA_use
	.fpu	neon
	.eabi_attribute	17, 1	@ Tag_ABI_PCS_GOT_use
	.eabi_attribute	20, 2	@ Tag_ABI_FP_denormal
	.eabi_attribute	23, 1	@ Tag_ABI_FP_number_model
	.eabi_attribute	34, 1	@ Tag_CPU_unaligned_access
	.eabi_attribute	24, 1	@ Tag_ABI_align_needed
	.eabi_attribute	25, 1	@ Tag_ABI_align_preserved
	.eabi_attribute	28, 1	@ Tag_ABI_VFP_args
	.eabi_attribute	38, 1	@ Tag_ABI_FP_16bit_format
	.eabi_attribute	18, 4	@ Tag_ABI_PCS_wchar_t
	.eabi_attribute	26, 2	@ Tag_ABI_enum_size
	.eabi_attribute	14, 0	@ Tag_ABI_PCS_R9_use
	.eabi_attribute	68, 1	@ Tag_Virtualization_use
	.file	"/root/Bela/projects/pedal_chain/build/render.bc"
	.file	1 "/usr/bin/../lib/gcc/arm-linux-gnueabihf/6.3.0/../../../../include/arm-linux-gnueabihf/c++/6.3.0/bits" "c++config.h"
	.file	2 "/usr/bin/../lib/gcc/arm-linux-gnueabihf/6.3.0/../../../../include/c++/6.3.0/bits" "stringfwd.h"
	.file	3 "/root/Bela/projects/pedal_chain" "render.cpp"
	.file	4 "/usr/bin/../lib/gcc/arm-linux-gnueabihf/6.3.0/../../../../include/c++/6.3.0/bits" "alloc_traits.h"
	.file	5 "/usr/bin/../lib/gcc/arm-linux-gnueabihf/6.3.0/../../../../include/c++/6.3.0/ext" "new_allocator.h"
	.file	6 "/usr/bin/../lib/gcc/arm-linux-gnueabihf/6.3.0/../../../../include/arm-linux-gnueabihf/c++/6.3.0/bits" "c++allocator.h"
	.file	7 "/usr/bin/../lib/gcc/arm-linux-gnueabihf/6.3.0/../../../../include/c++/6.3.0/bits" "allocator.h"
	.file	8 "/usr/bin/../lib/gcc/arm-linux-gnueabihf/6.3.0/../../../../include/c++/6.3.0/ext" "alloc_traits.h"
	.file	9 "/usr/bin/../lib/gcc/arm-linux-gnueabihf/6.3.0/../../../../include/c++/6.3.0/bits" "stl_vector.h"
	.file	10 "/usr/bin/../lib/gcc/arm-linux-gnueabihf/6.3.0/../../../../include/c++/6.3.0" "initializer_list"
	.file	11 "/usr/bin/../lib/gcc/arm-linux-gnueabihf/6.3.0/../../../../include/c++/6.3.0" "type_traits"
	.file	12 "/root/Bela/projects/pedal_chain" "MonoFilePlayer.h"
	.file	13 "/root/Bela/projects/pedal_chain" "Distortion.h"
	.file	14 "/root/Bela/projects/pedal_chain" "Reverberation.h"
	.file	15 "/root/Bela/projects/pedal_chain" "isr_simple.h"
	.file	16 "./libraries/Gui" "Gui.h"
	.file	17 "/usr/bin/../lib/gcc/arm-linux-gnueabihf/6.3.0/../../../../include/c++/6.3.0/bits" "unique_ptr.h"
	.file	18 "/usr/bin/../lib/gcc/arm-linux-gnueabihf/6.3.0/../../../../include/c++/6.3.0" "tuple"
	.file	19 "/usr/bin/../lib/gcc/arm-linux-gnueabihf/6.3.0/../../../../include/c++/6.3.0/bits" "uses_allocator.h"
	.file	20 "/usr/bin/../lib/gcc/arm-linux-gnueabihf/6.3.0/../../../../include/c++/6.3.0/bits" "stl_function.h"
	.file	21 "/usr/bin/../lib/gcc/arm-linux-gnueabihf/6.3.0/../../../../include/c++/6.3.0" "functional"
	.file	22 "/usr/lib/llvm-3.9/bin/../lib/clang/3.9.1/include" "stddef.h"
	.file	23 "./libraries/GuiController" "GuiSlider.h"
	.file	24 "./include" "JSON.h"
	.file	25 "./libraries/GuiController" "GuiController.h"
	.file	26 "./libraries/Scope" "Scope.h"
	.file	27 "/usr/include/ne10" "NE10_types.h"
	.file	28 "/usr/bin/../lib/gcc/arm-linux-gnueabihf/6.3.0/../../../../include/c++/6.3.0/bits" "stl_tree.h"
	.file	29 "/usr/bin/../lib/gcc/arm-linux-gnueabihf/6.3.0/../../../../include/c++/6.3.0/bits" "stl_pair.h"
	.file	30 "/usr/bin/../lib/gcc/arm-linux-gnueabihf/6.3.0/../../../../include/c++/6.3.0/bits" "stl_map.h"
	.file	31 "/usr/bin/../lib/gcc/arm-linux-gnueabihf/6.3.0/../../../../include/c++/6.3.0/ext" "concurrence.h"
	.file	32 "./include" "Bela.h"
	.file	33 "./include" "GPIOcontrol.h"
	.file	34 "/usr/bin/../lib/gcc/arm-linux-gnueabihf/6.3.0/../../../../include/c++/6.3.0/bits" "cpp_type_traits.h"
	.file	35 "/usr/bin/../lib/gcc/arm-linux-gnueabihf/6.3.0/../../../../include/c++/6.3.0/bits" "basic_string.h"
	.file	36 "/usr/bin/../lib/gcc/arm-linux-gnueabihf/6.3.0/../../../../include/c++/6.3.0/bits" "char_traits.h"
	.file	37 "/usr/include/arm-linux-gnueabihf/bits" "math-finite.h"
	.file	38 "/usr/include/arm-linux-gnueabihf/bits" "mathcalls.h"
	.file	39 "/usr/include/arm-linux-gnueabihf/bits" "mathdef.h"
	.file	40 "/usr/bin/../lib/gcc/arm-linux-gnueabihf/6.3.0/../../../../include/c++/6.3.0/debug" "debug.h"
	.file	41 "/usr/bin/../lib/gcc/arm-linux-gnueabihf/6.3.0/../../../../include/c++/6.3.0/bits" "exception_ptr.h"
	.file	42 "/usr/include" "wchar.h"
	.file	43 "/usr/include" "libio.h"
	.file	44 "/usr/include/arm-linux-gnueabihf/bits" "types.h"
	.file	45 "/usr/include" "stdio.h"
	.file	46 "/usr/lib/llvm-3.9/bin/../lib/clang/3.9.1/include" "stdarg.h"
	.file	47 "/usr/include" "stdint.h"
	.file	48 "/usr/include" "locale.h"
	.file	49 "/usr/include" "ctype.h"
	.file	50 "/usr/include" "stdlib.h"
	.file	51 "/usr/include/arm-linux-gnueabihf/bits" "stdlib-float.h"
	.file	52 "/usr/include/arm-linux-gnueabihf/bits" "stdlib-bsearch.h"
	.file	53 "/usr/bin/../lib/gcc/arm-linux-gnueabihf/6.3.0/../../../../include/c++/6.3.0" "cstdlib"
	.file	54 "/usr/include" "_G_config.h"
	.file	55 "/usr/include/arm-linux-gnueabihf/bits" "stdio.h"
	.file	56 "/usr/include" "string.h"
	.section	.text._ZN14MonoFilePlayerD2Ev,"axG",%progbits,_ZN14MonoFilePlayerD2Ev,comdat
	.weak	_ZN14MonoFilePlayerD2Ev
	.p2align	2
	.type	_ZN14MonoFilePlayerD2Ev,%function
_ZN14MonoFilePlayerD2Ev:                @ @_ZN14MonoFilePlayerD2Ev
.Lfunc_begin0:
	.loc	12 42 0                 @ /root/Bela/projects/pedal_chain/MonoFilePlayer.h:42:0
	.fnstart
	.cfi_startproc
@ BB#0:
	.save	{r4, r10, r11, lr}
	push	{r4, r10, r11, lr}
.Ltmp0:
	.cfi_def_cfa_offset 16
.Ltmp1:
	.cfi_offset lr, -4
.Ltmp2:
	.cfi_offset r11, -8
.Ltmp3:
	.cfi_offset r10, -12
.Ltmp4:
	.cfi_offset r4, -16
	.setfp	r11, sp, #8
	add	r11, sp, #8
.Ltmp5:
	.cfi_def_cfa r11, 8
	@DEBUG_VALUE: ~MonoFilePlayer:this <- %R0
	mov	r4, r0
.Ltmp6:
	@DEBUG_VALUE: ~MonoFilePlayer:this <- %R4
	.loc	9 160 37 prologue_end   @ /usr/bin/../lib/gcc/arm-linux-gnueabihf/6.3.0/../../../../include/c++/6.3.0/bits/stl_vector.h:160:37
	ldr	r0, [r4]
.Ltmp7:
	@DEBUG_VALUE: _M_deallocate:__p <- %R0
	@DEBUG_VALUE: deallocate:__p <- %R0
	@DEBUG_VALUE: deallocate:__p <- %R0
	.loc	9 177 6                 @ /usr/bin/../lib/gcc/arm-linux-gnueabihf/6.3.0/../../../../include/c++/6.3.0/bits/stl_vector.h:177:6
	cmp	r0, #0
	beq	.LBB0_2
.Ltmp8:
@ BB#1:
	@DEBUG_VALUE: deallocate:__p <- %R0
	@DEBUG_VALUE: deallocate:__p <- %R0
	@DEBUG_VALUE: _M_deallocate:__p <- %R0
	@DEBUG_VALUE: ~MonoFilePlayer:this <- %R4
	.loc	5 110 9                 @ /usr/bin/../lib/gcc/arm-linux-gnueabihf/6.3.0/../../../../include/c++/6.3.0/ext/new_allocator.h:110:9
	bl	_ZdlPv
.Ltmp9:
.LBB0_2:                                @ %_ZNSt6vectorIfSaIfEED2Ev.exit
	@DEBUG_VALUE: ~MonoFilePlayer:this <- %R4
	.loc	12 42 21                @ /root/Bela/projects/pedal_chain/MonoFilePlayer.h:42:21
	mov	r0, r4
	pop	{r4, r10, r11, pc}
.Ltmp10:
.Lfunc_end0:
	.size	_ZN14MonoFilePlayerD2Ev, .Lfunc_end0-_ZN14MonoFilePlayerD2Ev
	.cfi_endproc
	.fnend

	.section	.text._ZN10DistortionD2Ev,"axG",%progbits,_ZN10DistortionD2Ev,comdat
	.weak	_ZN10DistortionD2Ev
	.p2align	2
	.type	_ZN10DistortionD2Ev,%function
_ZN10DistortionD2Ev:                    @ @_ZN10DistortionD2Ev
.Lfunc_begin1:
	.loc	13 18 0                 @ /root/Bela/projects/pedal_chain/Distortion.h:18:0
	.fnstart
	.cfi_startproc
@ BB#0:
	.save	{r4, r10, r11, lr}
	push	{r4, r10, r11, lr}
.Ltmp11:
	.cfi_def_cfa_offset 16
.Ltmp12:
	.cfi_offset lr, -4
.Ltmp13:
	.cfi_offset r11, -8
.Ltmp14:
	.cfi_offset r10, -12
.Ltmp15:
	.cfi_offset r4, -16
	.setfp	r11, sp, #8
	add	r11, sp, #8
.Ltmp16:
	.cfi_def_cfa r11, 8
	@DEBUG_VALUE: ~Distortion:this <- %R0
	mov	r4, r0
.Ltmp17:
	@DEBUG_VALUE: ~Distortion:this <- %R4
	.loc	9 160 37 prologue_end   @ /usr/bin/../lib/gcc/arm-linux-gnueabihf/6.3.0/../../../../include/c++/6.3.0/bits/stl_vector.h:160:37
	ldr	r0, [r4]
.Ltmp18:
	@DEBUG_VALUE: _M_deallocate:__p <- %R0
	@DEBUG_VALUE: deallocate:__p <- %R0
	@DEBUG_VALUE: deallocate:__p <- %R0
	.loc	9 177 6                 @ /usr/bin/../lib/gcc/arm-linux-gnueabihf/6.3.0/../../../../include/c++/6.3.0/bits/stl_vector.h:177:6
	cmp	r0, #0
	beq	.LBB1_2
.Ltmp19:
@ BB#1:
	@DEBUG_VALUE: deallocate:__p <- %R0
	@DEBUG_VALUE: deallocate:__p <- %R0
	@DEBUG_VALUE: _M_deallocate:__p <- %R0
	@DEBUG_VALUE: ~Distortion:this <- %R4
	.loc	5 110 9                 @ /usr/bin/../lib/gcc/arm-linux-gnueabihf/6.3.0/../../../../include/c++/6.3.0/ext/new_allocator.h:110:9
	bl	_ZdlPv
.Ltmp20:
.LBB1_2:                                @ %_ZNSt6vectorIfSaIfEED2Ev.exit
	@DEBUG_VALUE: ~Distortion:this <- %R4
	.loc	13 18 17                @ /root/Bela/projects/pedal_chain/Distortion.h:18:17
	mov	r0, r4
	pop	{r4, r10, r11, pc}
.Ltmp21:
.Lfunc_end1:
	.size	_ZN10DistortionD2Ev, .Lfunc_end1-_ZN10DistortionD2Ev
	.cfi_endproc
	.fnend

	.section	.text._ZN13ReverberationD2Ev,"axG",%progbits,_ZN13ReverberationD2Ev,comdat
	.weak	_ZN13ReverberationD2Ev
	.p2align	2
	.type	_ZN13ReverberationD2Ev,%function
_ZN13ReverberationD2Ev:                 @ @_ZN13ReverberationD2Ev
.Lfunc_begin2:
	.loc	14 15 0                 @ /root/Bela/projects/pedal_chain/Reverberation.h:15:0
	.fnstart
	.cfi_startproc
@ BB#0:
	.save	{r4, r10, r11, lr}
	push	{r4, r10, r11, lr}
.Ltmp22:
	.cfi_def_cfa_offset 16
.Ltmp23:
	.cfi_offset lr, -4
.Ltmp24:
	.cfi_offset r11, -8
.Ltmp25:
	.cfi_offset r10, -12
.Ltmp26:
	.cfi_offset r4, -16
	.setfp	r11, sp, #8
	add	r11, sp, #8
.Ltmp27:
	.cfi_def_cfa r11, 8
	@DEBUG_VALUE: ~Reverberation:this <- %R0
	mov	r4, r0
.Ltmp28:
	@DEBUG_VALUE: ~Reverberation:this <- %R4
	.loc	9 160 37 prologue_end   @ /usr/bin/../lib/gcc/arm-linux-gnueabihf/6.3.0/../../../../include/c++/6.3.0/bits/stl_vector.h:160:37
	ldr	r0, [r4, #12]
.Ltmp29:
	@DEBUG_VALUE: _M_deallocate:__p <- %R0
	@DEBUG_VALUE: deallocate:__p <- %R0
	@DEBUG_VALUE: deallocate:__p <- %R0
	.loc	9 177 6                 @ /usr/bin/../lib/gcc/arm-linux-gnueabihf/6.3.0/../../../../include/c++/6.3.0/bits/stl_vector.h:177:6
	cmp	r0, #0
	beq	.LBB2_2
.Ltmp30:
@ BB#1:
	@DEBUG_VALUE: deallocate:__p <- %R0
	@DEBUG_VALUE: deallocate:__p <- %R0
	@DEBUG_VALUE: _M_deallocate:__p <- %R0
	@DEBUG_VALUE: ~Reverberation:this <- %R4
	.loc	5 110 9                 @ /usr/bin/../lib/gcc/arm-linux-gnueabihf/6.3.0/../../../../include/c++/6.3.0/ext/new_allocator.h:110:9
	bl	_ZdlPv
.Ltmp31:
.LBB2_2:                                @ %_ZNSt6vectorIfSaIfEED2Ev.exit
	@DEBUG_VALUE: ~Reverberation:this <- %R4
	.loc	9 160 37                @ /usr/bin/../lib/gcc/arm-linux-gnueabihf/6.3.0/../../../../include/c++/6.3.0/bits/stl_vector.h:160:37
	ldr	r0, [r4]
.Ltmp32:
	@DEBUG_VALUE: _M_deallocate:__p <- %R0
	@DEBUG_VALUE: deallocate:__p <- %R0
	@DEBUG_VALUE: deallocate:__p <- %R0
	.loc	9 177 6                 @ /usr/bin/../lib/gcc/arm-linux-gnueabihf/6.3.0/../../../../include/c++/6.3.0/bits/stl_vector.h:177:6
	cmp	r0, #0
	beq	.LBB2_4
.Ltmp33:
@ BB#3:
	@DEBUG_VALUE: deallocate:__p <- %R0
	@DEBUG_VALUE: deallocate:__p <- %R0
	@DEBUG_VALUE: _M_deallocate:__p <- %R0
	@DEBUG_VALUE: ~Reverberation:this <- %R4
	.loc	5 110 9                 @ /usr/bin/../lib/gcc/arm-linux-gnueabihf/6.3.0/../../../../include/c++/6.3.0/ext/new_allocator.h:110:9
	bl	_ZdlPv
.Ltmp34:
.LBB2_4:                                @ %_ZNSt6vectorIfSaIfEED2Ev.exit1
	@DEBUG_VALUE: ~Reverberation:this <- %R4
	.loc	14 15 20                @ /root/Bela/projects/pedal_chain/Reverberation.h:15:20
	mov	r0, r4
	pop	{r4, r10, r11, pc}
.Ltmp35:
.Lfunc_end2:
	.size	_ZN13ReverberationD2Ev, .Lfunc_end2-_ZN13ReverberationD2Ev
	.cfi_endproc
	.fnend

	.section	.text._ZN10isr_simpleD2Ev,"axG",%progbits,_ZN10isr_simpleD2Ev,comdat
	.weak	_ZN10isr_simpleD2Ev
	.p2align	2
	.type	_ZN10isr_simpleD2Ev,%function
_ZN10isr_simpleD2Ev:                    @ @_ZN10isr_simpleD2Ev
.Lfunc_begin3:
	.loc	15 8 0                  @ /root/Bela/projects/pedal_chain/isr_simple.h:8:0
	.fnstart
	.cfi_startproc
@ BB#0:
	.save	{r4, r10, r11, lr}
	push	{r4, r10, r11, lr}
.Ltmp36:
	.cfi_def_cfa_offset 16
.Ltmp37:
	.cfi_offset lr, -4
.Ltmp38:
	.cfi_offset r11, -8
.Ltmp39:
	.cfi_offset r10, -12
.Ltmp40:
	.cfi_offset r4, -16
	.setfp	r11, sp, #8
	add	r11, sp, #8
.Ltmp41:
	.cfi_def_cfa r11, 8
	@DEBUG_VALUE: ~isr_simple:this <- %R0
	mov	r4, r0
.Ltmp42:
	@DEBUG_VALUE: ~isr_simple:this <- %R4
	.loc	9 160 37 prologue_end   @ /usr/bin/../lib/gcc/arm-linux-gnueabihf/6.3.0/../../../../include/c++/6.3.0/bits/stl_vector.h:160:37
	ldr	r0, [r4, #28]
.Ltmp43:
	@DEBUG_VALUE: _M_deallocate:__p <- %R0
	@DEBUG_VALUE: deallocate:__p <- %R0
	@DEBUG_VALUE: deallocate:__p <- %R0
	.loc	9 177 6                 @ /usr/bin/../lib/gcc/arm-linux-gnueabihf/6.3.0/../../../../include/c++/6.3.0/bits/stl_vector.h:177:6
	cmp	r0, #0
	beq	.LBB3_2
.Ltmp44:
@ BB#1:
	@DEBUG_VALUE: deallocate:__p <- %R0
	@DEBUG_VALUE: deallocate:__p <- %R0
	@DEBUG_VALUE: _M_deallocate:__p <- %R0
	@DEBUG_VALUE: ~isr_simple:this <- %R4
	.loc	5 110 9                 @ /usr/bin/../lib/gcc/arm-linux-gnueabihf/6.3.0/../../../../include/c++/6.3.0/ext/new_allocator.h:110:9
	bl	_ZdlPv
.Ltmp45:
.LBB3_2:                                @ %_ZNSt6vectorIfSaIfEED2Ev.exit
	@DEBUG_VALUE: ~isr_simple:this <- %R4
	.loc	9 160 37                @ /usr/bin/../lib/gcc/arm-linux-gnueabihf/6.3.0/../../../../include/c++/6.3.0/bits/stl_vector.h:160:37
	ldr	r0, [r4, #16]
.Ltmp46:
	@DEBUG_VALUE: _M_deallocate:__p <- %R0
	@DEBUG_VALUE: deallocate:__p <- %R0
	@DEBUG_VALUE: deallocate:__p <- %R0
	.loc	9 177 6                 @ /usr/bin/../lib/gcc/arm-linux-gnueabihf/6.3.0/../../../../include/c++/6.3.0/bits/stl_vector.h:177:6
	cmp	r0, #0
	beq	.LBB3_4
.Ltmp47:
@ BB#3:
	@DEBUG_VALUE: deallocate:__p <- %R0
	@DEBUG_VALUE: deallocate:__p <- %R0
	@DEBUG_VALUE: _M_deallocate:__p <- %R0
	@DEBUG_VALUE: ~isr_simple:this <- %R4
	.loc	5 110 9                 @ /usr/bin/../lib/gcc/arm-linux-gnueabihf/6.3.0/../../../../include/c++/6.3.0/ext/new_allocator.h:110:9
	bl	_ZdlPv
.Ltmp48:
.LBB3_4:                                @ %_ZNSt6vectorIfSaIfEED2Ev.exit1
	@DEBUG_VALUE: ~isr_simple:this <- %R4
	.loc	9 160 37                @ /usr/bin/../lib/gcc/arm-linux-gnueabihf/6.3.0/../../../../include/c++/6.3.0/bits/stl_vector.h:160:37
	ldr	r0, [r4, #4]
.Ltmp49:
	@DEBUG_VALUE: _M_deallocate:__p <- %R0
	@DEBUG_VALUE: deallocate:__p <- %R0
	@DEBUG_VALUE: deallocate:__p <- %R0
	.loc	9 177 6                 @ /usr/bin/../lib/gcc/arm-linux-gnueabihf/6.3.0/../../../../include/c++/6.3.0/bits/stl_vector.h:177:6
	cmp	r0, #0
	beq	.LBB3_6
.Ltmp50:
@ BB#5:
	@DEBUG_VALUE: deallocate:__p <- %R0
	@DEBUG_VALUE: deallocate:__p <- %R0
	@DEBUG_VALUE: _M_deallocate:__p <- %R0
	@DEBUG_VALUE: ~isr_simple:this <- %R4
	.loc	5 110 9                 @ /usr/bin/../lib/gcc/arm-linux-gnueabihf/6.3.0/../../../../include/c++/6.3.0/ext/new_allocator.h:110:9
	bl	_ZdlPv
.Ltmp51:
.LBB3_6:                                @ %_ZNSt6vectorIfSaIfEED2Ev.exit2
	@DEBUG_VALUE: ~isr_simple:this <- %R4
	.loc	15 8 17                 @ /root/Bela/projects/pedal_chain/isr_simple.h:8:17
	mov	r0, r4
	pop	{r4, r10, r11, pc}
.Ltmp52:
.Lfunc_end3:
	.size	_ZN10isr_simpleD2Ev, .Lfunc_end3-_ZN10isr_simpleD2Ev
	.cfi_endproc
	.fnend

	.text
	.globl	setup
	.p2align	2
	.type	setup,%function
setup:                                  @ @setup
.Lfunc_begin4:
	.loc	3 42 0                  @ /root/Bela/projects/pedal_chain/render.cpp:42:0
	.fnstart
	.cfi_startproc
@ BB#0:
	.save	{r4, r5, r6, r10, r11, lr}
	push	{r4, r5, r6, r10, r11, lr}
.Ltmp77:
	.cfi_def_cfa_offset 24
.Ltmp78:
	.cfi_offset lr, -4
.Ltmp79:
	.cfi_offset r11, -8
.Ltmp80:
	.cfi_offset r10, -12
.Ltmp81:
	.cfi_offset r6, -16
.Ltmp82:
	.cfi_offset r5, -20
.Ltmp83:
	.cfi_offset r4, -24
	.setfp	r11, sp, #16
	add	r11, sp, #16
.Ltmp84:
	.cfi_def_cfa r11, 8
	.pad	#184
	sub	sp, sp, #184
	@DEBUG_VALUE: setup:context <- %R0
	@DEBUG_VALUE: setup:userData <- %R1
.Ltmp85:
	.loc	3 44 14 prologue_end    @ /root/Bela/projects/pedal_chain/render.cpp:44:14
	movw	r6, :lower16:.L_MergedGlobals
	movw	r5, :lower16:gPlayer
	movt	r6, :upper16:.L_MergedGlobals
	add	r1, r6, #24
.Ltmp86:
	@DEBUG_VALUE: _M_data:this <- %R1
	@DEBUG_VALUE: c_str:this <- %R1
	movt	r5, :upper16:gPlayer
	mov	r4, r0
.Ltmp87:
	@DEBUG_VALUE: setup:context <- %R4
	mov	r0, r5
	mov	r2, #1
	mov	r3, #1
	bl	_ZN14MonoFilePlayer5setupERKNSt7__cxx1112basic_stringIcSt11char_traitsIcESaIcEEEbb
.Ltmp88:
	.loc	35 136 28               @ /usr/bin/../lib/gcc/arm-linux-gnueabihf/6.3.0/../../../../include/c++/6.3.0/bits/basic_string.h:136:28
	ldr	r1, [r6, #24]
.Ltmp89:
	.loc	3 44 5                  @ /root/Bela/projects/pedal_chain/render.cpp:44:5
	cmp	r0, #0
	beq	.LBB4_10
.Ltmp90:
@ BB#1:
	@DEBUG_VALUE: setup:context <- %R4
	.loc	9 656 66                @ /usr/bin/../lib/gcc/arm-linux-gnueabihf/6.3.0/../../../../include/c++/6.3.0/bits/stl_vector.h:656:66
	ldm	r5, {r0, r2}
	.loc	9 656 50 is_stmt 0      @ /usr/bin/../lib/gcc/arm-linux-gnueabihf/6.3.0/../../../../include/c++/6.3.0/bits/stl_vector.h:656:50
	sub	r0, r2, r0
.Ltmp91:
	.loc	3 50 34 is_stmt 1       @ /root/Bela/projects/pedal_chain/render.cpp:50:34
	vldr	s0, [r4, #32]
.Ltmp92:
	.loc	9 656 50                @ /usr/bin/../lib/gcc/arm-linux-gnueabihf/6.3.0/../../../../include/c++/6.3.0/bits/stl_vector.h:656:50
	asr	r2, r0, #2
.Ltmp93:
	.loc	3 48 5                  @ /root/Bela/projects/pedal_chain/render.cpp:48:5
	movw	r0, :lower16:.L.str.10
	.loc	3 50 8                  @ /root/Bela/projects/pedal_chain/render.cpp:50:8
	vmov	s2, r2
	.loc	3 48 5                  @ /root/Bela/projects/pedal_chain/render.cpp:48:5
	movt	r0, :upper16:.L.str.10
	.loc	3 50 8                  @ /root/Bela/projects/pedal_chain/render.cpp:50:8
	vcvt.f32.u32	d1, d1
	.loc	3 50 23 is_stmt 0       @ /root/Bela/projects/pedal_chain/render.cpp:50:23
	vdiv.f32	s0, s2, s0
	.loc	3 50 8                  @ /root/Bela/projects/pedal_chain/render.cpp:50:8
	vcvt.f64.f32	d16, s0
	.loc	3 48 5 is_stmt 1        @ /root/Bela/projects/pedal_chain/render.cpp:48:5
	vstr	d16, [sp]
	bl	rt_printf
.Ltmp94:
	@DEBUG_VALUE: pinMode:f <- 0
	@DEBUG_VALUE: pinMode:mode <- 0
	@DEBUG_VALUE: pinMode:frame <- 0
	.loc	32 1546 30 discriminator 1 @ ./include/Bela.h:1546:30
	ldr	r0, [r4, #52]
	.loc	32 1546 2 is_stmt 0 discriminator 1 @ ./include/Bela.h:1546:2
	cmp	r0, #0
.Ltmp95:
	@DEBUG_VALUE: size:this <- %R5
	@DEBUG_VALUE: size:this <- %R5
	beq	.LBB4_7
.Ltmp96:
@ BB#2:                                 @ %.lr.ph.i
	@DEBUG_VALUE: size:this <- %R5
	@DEBUG_VALUE: size:this <- %R5
	@DEBUG_VALUE: setup:context <- %R4
	.loc	32 1548 13 is_stmt 1    @ ./include/Bela.h:1548:13
	ldr	r0, [r4, #16]
	mov	r1, #0
.Ltmp97:
.LBB4_3:                                @ =>This Inner Loop Header: Depth=1
	.loc	32 1548 24 is_stmt 0    @ ./include/Bela.h:1548:24
	ldr	r2, [r0, r1, lsl #2]
	orr	r2, r2, #1
	str	r2, [r0, r1, lsl #2]
.Ltmp98:
	.loc	32 1546 46 is_stmt 1 discriminator 2 @ ./include/Bela.h:1546:46
	add	r1, r1, #1
.Ltmp99:
	@DEBUG_VALUE: pinMode:f <- %R1
	.loc	32 1546 30 is_stmt 0 discriminator 1 @ ./include/Bela.h:1546:30
	ldr	r2, [r4, #52]
	.loc	32 1546 2 discriminator 1 @ ./include/Bela.h:1546:2
	cmp	r1, r2
	blo	.LBB4_3
.Ltmp100:
@ BB#4:                                 @ %_ZL7pinModeP11BelaContextiii.exit
	@DEBUG_VALUE: pinMode:f <- %R1
	@DEBUG_VALUE: pinMode:frame <- 0
	@DEBUG_VALUE: pinMode:mode <- 0
	@DEBUG_VALUE: pinMode:f <- 0
	.loc	32 1546 2 discriminator 1 @ ./include/Bela.h:1546:2
	cmp	r2, #0
	beq	.LBB4_7
.Ltmp101:
@ BB#5:                                 @ %.lr.ph.i18.preheader
	@DEBUG_VALUE: pinMode:f <- %R1
	mov	r1, #0
.Ltmp102:
.LBB4_6:                                @ %.lr.ph.i18
                                        @ =>This Inner Loop Header: Depth=1
	.loc	32 1548 24 is_stmt 1    @ ./include/Bela.h:1548:24
	ldr	r2, [r0, r1, lsl #2]
	orr	r2, r2, #2
	str	r2, [r0, r1, lsl #2]
.Ltmp103:
	.loc	32 1546 46 discriminator 2 @ ./include/Bela.h:1546:46
	add	r1, r1, #1
.Ltmp104:
	@DEBUG_VALUE: pinMode:f <- %R1
	.loc	32 1546 30 is_stmt 0 discriminator 1 @ ./include/Bela.h:1546:30
	ldr	r2, [r4, #52]
	.loc	32 1546 2 discriminator 1 @ ./include/Bela.h:1546:2
	cmp	r1, r2
	blo	.LBB4_6
.Ltmp105:
.LBB4_7:                                @ %_ZL7pinModeP11BelaContextiii.exit20
	.loc	3 56 13 is_stmt 1       @ /root/Bela/projects/pedal_chain/render.cpp:56:13
	add	r4, r4, #92
.Ltmp106:
	@DEBUG_VALUE: basic_string:__s <- %R4
	@DEBUG_VALUE: length:__s <- %R4
	@DEBUG_VALUE: _M_construct<const char *>:__beg <- %R4
	@DEBUG_VALUE: _M_construct_aux<const char *>:__beg <- %R4
	@DEBUG_VALUE: _M_construct<const char *>:__beg <- %R4
	@DEBUG_VALUE: _S_copy_chars:__k1 <- %R4
	@DEBUG_VALUE: _S_copy:__s <- %R4
	@DEBUG_VALUE: assign:__c2 <- %R4
	sub	r0, r11, #48
.Ltmp107:
	@DEBUG_VALUE: _M_construct<const char *>:this <- %R0
	@DEBUG_VALUE: _M_construct_aux<const char *>:this <- %R0
	@DEBUG_VALUE: _M_construct<const char *>:this <- %R0
	@DEBUG_VALUE: _M_local_data:this <- %R0
	.loc	35 142 51               @ /usr/bin/../lib/gcc/arm-linux-gnueabihf/6.3.0/../../../../include/c++/6.3.0/bits/basic_string.h:142:51
	add	r6, r0, #8
.Ltmp108:
	.loc	35 110 25               @ /usr/bin/../lib/gcc/arm-linux-gnueabihf/6.3.0/../../../../include/c++/6.3.0/bits/basic_string.h:110:25
	str	r6, [r11, #-48]
.Ltmp109:
	.loc	36 267 16               @ /usr/bin/../lib/gcc/arm-linux-gnueabihf/6.3.0/../../../../include/c++/6.3.0/bits/char_traits.h:267:16
	mov	r0, r4
.Ltmp110:
	bl	strlen
	mov	r5, r0
.Ltmp111:
	@DEBUG_VALUE: _M_construct<const char *>:__dnew <- %R5
	@DEBUG_VALUE: _S_copy:__n <- %R5
	.file	57 "/usr/bin/../lib/gcc/arm-linux-gnueabihf/6.3.0/../../../../include/c++/6.3.0/bits" "basic_string.tcc"
	.loc	57 217 6                @ /usr/bin/../lib/gcc/arm-linux-gnueabihf/6.3.0/../../../../include/c++/6.3.0/bits/basic_string.tcc:217:6
	cmp	r5, #15
	.loc	57 215 12               @ /usr/bin/../lib/gcc/arm-linux-gnueabihf/6.3.0/../../../../include/c++/6.3.0/bits/basic_string.tcc:215:12
	str	r5, [r11, #-24]
	bls	.LBB4_11
.Ltmp112:
@ BB#8:                                 @ %.noexc8.i
	@DEBUG_VALUE: _S_copy:__n <- %R5
	@DEBUG_VALUE: _M_construct<const char *>:__dnew <- %R5
	@DEBUG_VALUE: assign:__c2 <- %R4
	@DEBUG_VALUE: _S_copy:__s <- %R4
	@DEBUG_VALUE: _S_copy_chars:__k1 <- %R4
	@DEBUG_VALUE: _M_construct<const char *>:__beg <- %R4
	@DEBUG_VALUE: _M_construct_aux<const char *>:__beg <- %R4
	@DEBUG_VALUE: _M_construct<const char *>:__beg <- %R4
	@DEBUG_VALUE: length:__s <- %R4
	@DEBUG_VALUE: basic_string:__s <- %R4
	.loc	57 219 14               @ /usr/bin/../lib/gcc/arm-linux-gnueabihf/6.3.0/../../../../include/c++/6.3.0/bits/basic_string.tcc:219:14
.Ltmp53:
	sub	r0, r11, #48
	sub	r1, r11, #24
.Ltmp113:
	@DEBUG_VALUE: _M_construct<const char *>:__dnew <- [%R1+0]
	mov	r2, #0
	bl	_ZNSt7__cxx1112basic_stringIcSt11char_traitsIcESaIcEE9_M_createERjj
.Ltmp114:
.Ltmp54:
.Ltmp115:
@ BB#9:                                 @ %.noexc
	@DEBUG_VALUE: _S_copy:__n <- %R5
	@DEBUG_VALUE: assign:__c2 <- %R4
	@DEBUG_VALUE: _S_copy:__s <- %R4
	@DEBUG_VALUE: _S_copy_chars:__k1 <- %R4
	@DEBUG_VALUE: _M_construct<const char *>:__beg <- %R4
	@DEBUG_VALUE: _M_construct_aux<const char *>:__beg <- %R4
	@DEBUG_VALUE: _M_construct<const char *>:__beg <- %R4
	@DEBUG_VALUE: length:__s <- %R4
	@DEBUG_VALUE: basic_string:__s <- %R4
	@DEBUG_VALUE: _M_data:__p <- %R0
	.loc	57 220 18               @ /usr/bin/../lib/gcc/arm-linux-gnueabihf/6.3.0/../../../../include/c++/6.3.0/bits/basic_string.tcc:220:18
	ldr	r1, [r11, #-24]
.Ltmp116:
	@DEBUG_VALUE: _M_capacity:__capacity <- %R1
	@DEBUG_VALUE: _M_construct<const char *>:__dnew <- %R1
	.loc	35 128 26               @ /usr/bin/../lib/gcc/arm-linux-gnueabihf/6.3.0/../../../../include/c++/6.3.0/bits/basic_string.h:128:26
	str	r0, [r11, #-48]
.Ltmp117:
	.loc	35 160 31               @ /usr/bin/../lib/gcc/arm-linux-gnueabihf/6.3.0/../../../../include/c++/6.3.0/bits/basic_string.h:160:31
	str	r1, [r11, #-40]
	b	.LBB4_12
.Ltmp118:
.LBB4_10:
	@DEBUG_VALUE: setup:context <- %R4
	.loc	3 45 6 discriminator 1  @ /root/Bela/projects/pedal_chain/render.cpp:45:6
	movw	r0, :lower16:.L.str.9
	movt	r0, :upper16:.L.str.9
	bl	rt_printf
	mov	r4, #0
.Ltmp119:
	b	.LBB4_37
.Ltmp120:
.LBB4_11:                               @ %._crit_edge.i.i.i.i
	@DEBUG_VALUE: _S_copy:__n <- %R5
	@DEBUG_VALUE: _M_construct<const char *>:__dnew <- %R5
	@DEBUG_VALUE: assign:__c2 <- %R4
	@DEBUG_VALUE: _S_copy:__s <- %R4
	@DEBUG_VALUE: _S_copy_chars:__k1 <- %R4
	@DEBUG_VALUE: _M_construct<const char *>:__beg <- %R4
	@DEBUG_VALUE: _M_construct_aux<const char *>:__beg <- %R4
	@DEBUG_VALUE: _M_construct<const char *>:__beg <- %R4
	@DEBUG_VALUE: length:__s <- %R4
	@DEBUG_VALUE: basic_string:__s <- %R4
	.loc	35 136 28               @ /usr/bin/../lib/gcc/arm-linux-gnueabihf/6.3.0/../../../../include/c++/6.3.0/bits/basic_string.h:136:28
	mov	r0, r6
.Ltmp121:
.LBB4_12:
	@DEBUG_VALUE: _S_copy:__n <- %R5
	@DEBUG_VALUE: assign:__c2 <- %R4
	@DEBUG_VALUE: _S_copy:__s <- %R4
	@DEBUG_VALUE: _S_copy_chars:__k1 <- %R4
	@DEBUG_VALUE: _M_construct<const char *>:__beg <- %R4
	@DEBUG_VALUE: _M_construct_aux<const char *>:__beg <- %R4
	@DEBUG_VALUE: _M_construct<const char *>:__beg <- %R4
	@DEBUG_VALUE: length:__s <- %R4
	@DEBUG_VALUE: basic_string:__s <- %R4
	.loc	35 297 6                @ /usr/bin/../lib/gcc/arm-linux-gnueabihf/6.3.0/../../../../include/c++/6.3.0/bits/basic_string.h:297:6
	cmp	r5, #0
	beq	.LBB4_16
.Ltmp122:
@ BB#13:
	@DEBUG_VALUE: _S_copy:__n <- %R5
	@DEBUG_VALUE: assign:__c2 <- %R4
	@DEBUG_VALUE: _S_copy:__s <- %R4
	@DEBUG_VALUE: _S_copy_chars:__k1 <- %R4
	@DEBUG_VALUE: _M_construct<const char *>:__beg <- %R4
	@DEBUG_VALUE: _M_construct_aux<const char *>:__beg <- %R4
	@DEBUG_VALUE: _M_construct<const char *>:__beg <- %R4
	@DEBUG_VALUE: length:__s <- %R4
	@DEBUG_VALUE: basic_string:__s <- %R4
	cmp	r5, #1
	bne	.LBB4_15
.Ltmp123:
@ BB#14:
	@DEBUG_VALUE: _S_copy:__n <- %R5
	@DEBUG_VALUE: assign:__c2 <- %R4
	@DEBUG_VALUE: _S_copy:__s <- %R4
	@DEBUG_VALUE: _S_copy_chars:__k1 <- %R4
	@DEBUG_VALUE: _M_construct<const char *>:__beg <- %R4
	@DEBUG_VALUE: _M_construct_aux<const char *>:__beg <- %R4
	@DEBUG_VALUE: _M_construct<const char *>:__beg <- %R4
	@DEBUG_VALUE: length:__s <- %R4
	@DEBUG_VALUE: basic_string:__s <- %R4
	.loc	36 243 16               @ /usr/bin/../lib/gcc/arm-linux-gnueabihf/6.3.0/../../../../include/c++/6.3.0/bits/char_traits.h:243:16
	ldrb	r1, [r4]
.Ltmp124:
	@DEBUG_VALUE: _S_copy_chars:__p <- %R0
	.loc	36 243 14 is_stmt 0     @ /usr/bin/../lib/gcc/arm-linux-gnueabihf/6.3.0/../../../../include/c++/6.3.0/bits/char_traits.h:243:14
	strb	r1, [r0]
	b	.LBB4_16
.Ltmp125:
.LBB4_15:
	@DEBUG_VALUE: _S_copy:__n <- %R5
	@DEBUG_VALUE: assign:__c2 <- %R4
	@DEBUG_VALUE: _S_copy:__s <- %R4
	@DEBUG_VALUE: _S_copy_chars:__k1 <- %R4
	@DEBUG_VALUE: _M_construct<const char *>:__beg <- %R4
	@DEBUG_VALUE: _M_construct_aux<const char *>:__beg <- %R4
	@DEBUG_VALUE: _M_construct<const char *>:__beg <- %R4
	@DEBUG_VALUE: length:__s <- %R4
	@DEBUG_VALUE: basic_string:__s <- %R4
	.loc	36 290 33 is_stmt 1     @ /usr/bin/../lib/gcc/arm-linux-gnueabihf/6.3.0/../../../../include/c++/6.3.0/bits/char_traits.h:290:33
	mov	r1, r4
	mov	r2, r5
	bl	memcpy
.Ltmp126:
.LBB4_16:                               @ %._crit_edge.i.i.i.i24
	@DEBUG_VALUE: _S_copy:__n <- %R5
	@DEBUG_VALUE: assign:__c2 <- %R4
	@DEBUG_VALUE: _S_copy:__s <- %R4
	@DEBUG_VALUE: _S_copy_chars:__k1 <- %R4
	@DEBUG_VALUE: _M_construct<const char *>:__beg <- %R4
	@DEBUG_VALUE: _M_construct_aux<const char *>:__beg <- %R4
	@DEBUG_VALUE: _M_construct<const char *>:__beg <- %R4
	@DEBUG_VALUE: length:__s <- %R4
	@DEBUG_VALUE: basic_string:__s <- %R4
	.loc	57 232 16               @ /usr/bin/../lib/gcc/arm-linux-gnueabihf/6.3.0/../../../../include/c++/6.3.0/bits/basic_string.tcc:232:16
	ldr	r0, [r11, #-24]
.Ltmp127:
	@DEBUG_VALUE: _M_set_length:__n <- %R0
	@DEBUG_VALUE: _M_length:__length <- %R0
	@DEBUG_VALUE: _M_construct<const char *>:__dnew <- %R0
	.loc	36 243 14               @ /usr/bin/../lib/gcc/arm-linux-gnueabihf/6.3.0/../../../../include/c++/6.3.0/bits/char_traits.h:243:14
	mov	r2, #0
.Ltmp128:
	.loc	35 132 26               @ /usr/bin/../lib/gcc/arm-linux-gnueabihf/6.3.0/../../../../include/c++/6.3.0/bits/basic_string.h:132:26
	str	r0, [r11, #-44]
	sub	r3, r11, #72
.Ltmp129:
	@DEBUG_VALUE: _M_data:this <- %R3
	@DEBUG_VALUE: _M_length:this <- %R3
	@DEBUG_VALUE: _M_set_length:__n <- 3
	@DEBUG_VALUE: _M_set_length:this <- %R3
	@DEBUG_VALUE: _M_data:this <- %R3
	@DEBUG_VALUE: _M_construct<const char *>:__dnew <- 3
	@DEBUG_VALUE: _M_construct<const char *>:this <- %R3
	@DEBUG_VALUE: _M_construct_aux<const char *>:this <- %R3
	@DEBUG_VALUE: _M_construct<const char *>:this <- %R3
	@DEBUG_VALUE: _S_copy_chars:__p <- %R5
	@DEBUG_VALUE: _S_copy:__d <- %R5
	@DEBUG_VALUE: _M_local_data:this <- %R3
	.loc	35 136 28               @ /usr/bin/../lib/gcc/arm-linux-gnueabihf/6.3.0/../../../../include/c++/6.3.0/bits/basic_string.h:136:28
	ldr	r1, [r11, #-48]
.Ltmp130:
	.loc	35 142 51               @ /usr/bin/../lib/gcc/arm-linux-gnueabihf/6.3.0/../../../../include/c++/6.3.0/bits/basic_string.h:142:51
	add	r5, r3, #8
.Ltmp131:
	.loc	36 243 14               @ /usr/bin/../lib/gcc/arm-linux-gnueabihf/6.3.0/../../../../include/c++/6.3.0/bits/char_traits.h:243:14
	strb	r2, [r1, r0]
.Ltmp132:
	.loc	36 290 33               @ /usr/bin/../lib/gcc/arm-linux-gnueabihf/6.3.0/../../../../include/c++/6.3.0/bits/char_traits.h:290:33
	mov	r0, #105
.Ltmp133:
	@DEBUG_VALUE: _S_copy:__n <- 3
	.loc	35 110 25               @ /usr/bin/../lib/gcc/arm-linux-gnueabihf/6.3.0/../../../../include/c++/6.3.0/bits/basic_string.h:110:25
	str	r5, [r11, #-72]
.Ltmp134:
	.loc	36 290 33               @ /usr/bin/../lib/gcc/arm-linux-gnueabihf/6.3.0/../../../../include/c++/6.3.0/bits/char_traits.h:290:33
	strb	r0, [r11, #-62]
	movw	r0, #30055
	strh	r0, [r11, #-64]
	mov	r0, #3
.Ltmp135:
	@DEBUG_VALUE: _M_length:__length <- 3
	.loc	35 132 26               @ /usr/bin/../lib/gcc/arm-linux-gnueabihf/6.3.0/../../../../include/c++/6.3.0/bits/basic_string.h:132:26
	str	r0, [r11, #-68]
.Ltmp136:
	.loc	36 243 14               @ /usr/bin/../lib/gcc/arm-linux-gnueabihf/6.3.0/../../../../include/c++/6.3.0/bits/char_traits.h:243:14
	strb	r2, [r11, #-61]
.Ltmp137:
	.loc	3 56 7 discriminator 2  @ /root/Bela/projects/pedal_chain/render.cpp:56:7
.Ltmp56:
	movw	r0, :lower16:gGui
	sub	r1, r11, #48
.Ltmp138:
	@DEBUG_VALUE: _M_data:this <- %R1
	@DEBUG_VALUE: _M_length:this <- %R1
	movt	r0, :upper16:gGui
	movw	r2, #5555
	bl	_ZN3Gui5setupENSt7__cxx1112basic_stringIcSt11char_traitsIcESaIcEEEjS5_
.Ltmp139:
.Ltmp57:
.Ltmp140:
@ BB#17:
	@DEBUG_VALUE: assign:__c2 <- %R4
	@DEBUG_VALUE: _S_copy:__s <- %R4
	@DEBUG_VALUE: _S_copy_chars:__k1 <- %R4
	@DEBUG_VALUE: _M_construct<const char *>:__beg <- %R4
	@DEBUG_VALUE: _M_construct_aux<const char *>:__beg <- %R4
	@DEBUG_VALUE: _M_construct<const char *>:__beg <- %R4
	@DEBUG_VALUE: length:__s <- %R4
	@DEBUG_VALUE: basic_string:__s <- %R4
	.loc	35 136 28               @ /usr/bin/../lib/gcc/arm-linux-gnueabihf/6.3.0/../../../../include/c++/6.3.0/bits/basic_string.h:136:28
	ldr	r0, [r11, #-72]
.Ltmp141:
	@DEBUG_VALUE: deallocate:__p <- %R0
	@DEBUG_VALUE: deallocate:__p <- %R0
	.loc	35 180 6                @ /usr/bin/../lib/gcc/arm-linux-gnueabihf/6.3.0/../../../../include/c++/6.3.0/bits/basic_string.h:180:6
	cmp	r0, r5
	beq	.LBB4_19
.Ltmp142:
@ BB#18:
	@DEBUG_VALUE: deallocate:__p <- %R0
	@DEBUG_VALUE: deallocate:__p <- %R0
	@DEBUG_VALUE: assign:__c2 <- %R4
	@DEBUG_VALUE: _S_copy:__s <- %R4
	@DEBUG_VALUE: _S_copy_chars:__k1 <- %R4
	@DEBUG_VALUE: _M_construct<const char *>:__beg <- %R4
	@DEBUG_VALUE: _M_construct_aux<const char *>:__beg <- %R4
	@DEBUG_VALUE: _M_construct<const char *>:__beg <- %R4
	@DEBUG_VALUE: length:__s <- %R4
	@DEBUG_VALUE: basic_string:__s <- %R4
	.loc	5 110 9                 @ /usr/bin/../lib/gcc/arm-linux-gnueabihf/6.3.0/../../../../include/c++/6.3.0/ext/new_allocator.h:110:9
	bl	_ZdlPv
.Ltmp143:
.LBB4_19:                               @ %_ZNSt7__cxx1112basic_stringIcSt11char_traitsIcESaIcEED2Ev.exit29
	@DEBUG_VALUE: assign:__c2 <- %R4
	@DEBUG_VALUE: _S_copy:__s <- %R4
	@DEBUG_VALUE: _S_copy_chars:__k1 <- %R4
	@DEBUG_VALUE: _M_construct<const char *>:__beg <- %R4
	@DEBUG_VALUE: _M_construct_aux<const char *>:__beg <- %R4
	@DEBUG_VALUE: _M_construct<const char *>:__beg <- %R4
	@DEBUG_VALUE: length:__s <- %R4
	@DEBUG_VALUE: basic_string:__s <- %R4
	.loc	35 136 28               @ /usr/bin/../lib/gcc/arm-linux-gnueabihf/6.3.0/../../../../include/c++/6.3.0/bits/basic_string.h:136:28
	ldr	r0, [r11, #-48]
.Ltmp144:
	@DEBUG_VALUE: deallocate:__p <- %R0
	@DEBUG_VALUE: deallocate:__p <- %R0
	.loc	35 180 6                @ /usr/bin/../lib/gcc/arm-linux-gnueabihf/6.3.0/../../../../include/c++/6.3.0/bits/basic_string.h:180:6
	cmp	r0, r6
	beq	.LBB4_21
.Ltmp145:
@ BB#20:
	@DEBUG_VALUE: deallocate:__p <- %R0
	@DEBUG_VALUE: deallocate:__p <- %R0
	@DEBUG_VALUE: assign:__c2 <- %R4
	@DEBUG_VALUE: _S_copy:__s <- %R4
	@DEBUG_VALUE: _S_copy_chars:__k1 <- %R4
	@DEBUG_VALUE: _M_construct<const char *>:__beg <- %R4
	@DEBUG_VALUE: _M_construct_aux<const char *>:__beg <- %R4
	@DEBUG_VALUE: _M_construct<const char *>:__beg <- %R4
	@DEBUG_VALUE: length:__s <- %R4
	@DEBUG_VALUE: basic_string:__s <- %R4
	.loc	5 110 9                 @ /usr/bin/../lib/gcc/arm-linux-gnueabihf/6.3.0/../../../../include/c++/6.3.0/ext/new_allocator.h:110:9
	bl	_ZdlPv
.Ltmp146:
.LBB4_21:                               @ %_ZNSt7__cxx1112basic_stringIcSt11char_traitsIcESaIcEED2Ev.exit30
	@DEBUG_VALUE: assign:__c2 <- %R4
	@DEBUG_VALUE: _S_copy:__s <- %R4
	@DEBUG_VALUE: _S_copy_chars:__k1 <- %R4
	@DEBUG_VALUE: _M_construct<const char *>:__beg <- %R4
	@DEBUG_VALUE: _M_construct_aux<const char *>:__beg <- %R4
	@DEBUG_VALUE: _M_construct<const char *>:__beg <- %R4
	@DEBUG_VALUE: length:__s <- %R4
	@DEBUG_VALUE: basic_string:__s <- %R4
	.loc	36 290 33               @ /usr/bin/../lib/gcc/arm-linux-gnueabihf/6.3.0/../../../../include/c++/6.3.0/bits/char_traits.h:290:33
	movw	r0, #28530
	sub	r2, r11, #96
.Ltmp147:
	@DEBUG_VALUE: _M_data:this <- %R2
	@DEBUG_VALUE: _M_length:this <- %R2
	@DEBUG_VALUE: _M_set_length:__n <- 8
	@DEBUG_VALUE: _M_set_length:this <- %R2
	@DEBUG_VALUE: _M_data:this <- %R2
	@DEBUG_VALUE: _M_construct<const char *>:__dnew <- 8
	@DEBUG_VALUE: _M_construct<const char *>:this <- %R2
	@DEBUG_VALUE: _M_construct_aux<const char *>:this <- %R2
	@DEBUG_VALUE: _M_construct<const char *>:this <- %R2
	@DEBUG_VALUE: _M_local_data:this <- %R2
	movt	r0, #29548
.Ltmp148:
	@DEBUG_VALUE: _S_copy:__n <- 8
	.loc	35 142 51               @ /usr/bin/../lib/gcc/arm-linux-gnueabihf/6.3.0/../../../../include/c++/6.3.0/bits/basic_string.h:142:51
	add	r5, r2, #8
.Ltmp149:
	.loc	35 110 25               @ /usr/bin/../lib/gcc/arm-linux-gnueabihf/6.3.0/../../../../include/c++/6.3.0/bits/basic_string.h:110:25
	str	r5, [r11, #-96]
.Ltmp150:
	.loc	36 290 33               @ /usr/bin/../lib/gcc/arm-linux-gnueabihf/6.3.0/../../../../include/c++/6.3.0/bits/char_traits.h:290:33
	str	r0, [r11, #-84]
	movw	r0, #28483
	movt	r0, #29806
	str	r0, [r11, #-88]
	mov	r0, #8
.Ltmp151:
	@DEBUG_VALUE: _M_length:__length <- 8
	.loc	35 132 26               @ /usr/bin/../lib/gcc/arm-linux-gnueabihf/6.3.0/../../../../include/c++/6.3.0/bits/basic_string.h:132:26
	str	r0, [r11, #-92]
.Ltmp152:
	.loc	36 243 14               @ /usr/bin/../lib/gcc/arm-linux-gnueabihf/6.3.0/../../../../include/c++/6.3.0/bits/char_traits.h:243:14
	mov	r0, #0
	strb	r0, [r11, #-80]
.Ltmp153:
	.loc	3 57 17 discriminator 1 @ /root/Bela/projects/pedal_chain/render.cpp:57:17
.Ltmp59:
	movw	r0, :lower16:.L_MergedGlobals.5
	movw	r1, :lower16:gGui
	movt	r0, :upper16:.L_MergedGlobals.5
	add	r4, r0, #48
.Ltmp154:
	movt	r1, :upper16:gGui
	mov	r0, r4
	bl	_ZN13GuiController5setupEP3GuiNSt7__cxx1112basic_stringIcSt11char_traitsIcESaIcEEE
.Ltmp155:
.Ltmp60:
@ BB#22:
.Ltmp156:
	.loc	35 136 28               @ /usr/bin/../lib/gcc/arm-linux-gnueabihf/6.3.0/../../../../include/c++/6.3.0/bits/basic_string.h:136:28
	ldr	r0, [r11, #-96]
.Ltmp157:
	@DEBUG_VALUE: deallocate:__p <- %R0
	@DEBUG_VALUE: deallocate:__p <- %R0
	.loc	35 180 6                @ /usr/bin/../lib/gcc/arm-linux-gnueabihf/6.3.0/../../../../include/c++/6.3.0/bits/basic_string.h:180:6
	cmp	r0, r5
	beq	.LBB4_24
.Ltmp158:
@ BB#23:
	@DEBUG_VALUE: deallocate:__p <- %R0
	@DEBUG_VALUE: deallocate:__p <- %R0
	.loc	5 110 9                 @ /usr/bin/../lib/gcc/arm-linux-gnueabihf/6.3.0/../../../../include/c++/6.3.0/ext/new_allocator.h:110:9
	bl	_ZdlPv
.Ltmp159:
.LBB4_24:                               @ %_ZNSt7__cxx1112basic_stringIcSt11char_traitsIcESaIcEED2Ev.exit39
	add	r1, sp, #80
.Ltmp160:
	@DEBUG_VALUE: _M_data:this <- %R1
	@DEBUG_VALUE: _M_length:this <- %R1
	@DEBUG_VALUE: _M_set_length:__n <- 6
	@DEBUG_VALUE: _M_set_length:this <- %R1
	@DEBUG_VALUE: _M_data:this <- %R1
	@DEBUG_VALUE: _M_construct<const char *>:__dnew <- 6
	@DEBUG_VALUE: _M_construct<const char *>:this <- %R1
	@DEBUG_VALUE: _M_construct_aux<const char *>:this <- %R1
	@DEBUG_VALUE: _M_construct<const char *>:this <- %R1
	@DEBUG_VALUE: _S_copy_chars:__p <- %R5
	@DEBUG_VALUE: _S_copy:__d <- %R5
	@DEBUG_VALUE: _M_local_data:this <- %R1
	.loc	36 290 33               @ /usr/bin/../lib/gcc/arm-linux-gnueabihf/6.3.0/../../../../include/c++/6.3.0/bits/char_traits.h:290:33
	movw	r3, #25202
.Ltmp161:
	@DEBUG_VALUE: _S_copy:__n <- 6
	.loc	35 142 51               @ /usr/bin/../lib/gcc/arm-linux-gnueabihf/6.3.0/../../../../include/c++/6.3.0/bits/basic_string.h:142:51
	add	r5, r1, #8
.Ltmp162:
	.loc	35 110 25               @ /usr/bin/../lib/gcc/arm-linux-gnueabihf/6.3.0/../../../../include/c++/6.3.0/bits/basic_string.h:110:25
	str	r5, [sp, #80]
.Ltmp163:
	.loc	36 290 33               @ /usr/bin/../lib/gcc/arm-linux-gnueabihf/6.3.0/../../../../include/c++/6.3.0/bits/char_traits.h:290:33
	strh	r3, [sp, #92]
	movw	r3, #25970
	mov	r0, #0
	movt	r3, #25974
	mov	r2, #6
	str	r3, [sp, #88]
.Ltmp164:
	@DEBUG_VALUE: _M_length:__length <- 6
	.loc	35 132 26               @ /usr/bin/../lib/gcc/arm-linux-gnueabihf/6.3.0/../../../../include/c++/6.3.0/bits/basic_string.h:132:26
	str	r2, [sp, #84]
.Ltmp165:
	.loc	3 58 17 discriminator 1 @ /root/Bela/projects/pedal_chain/render.cpp:58:17
	vmov.f32	d2, #1.000000e+00
	vmov.i32	d1, #0x0
.Ltmp166:
	.loc	36 243 14               @ /usr/bin/../lib/gcc/arm-linux-gnueabihf/6.3.0/../../../../include/c++/6.3.0/bits/char_traits.h:243:14
	strb	r0, [sp, #94]
.Ltmp167:
	.loc	3 58 17 discriminator 1 @ /root/Bela/projects/pedal_chain/render.cpp:58:17
.Ltmp62:
	vmov.i32	d0, #0x0
	mov	r0, r4
	vmov.f32	s1, s2
	vmov.f32	d1, #2.000000e+00
	vmov.f32	s3, s4
	bl	_ZN13GuiController9addSliderENSt7__cxx1112basic_stringIcSt11char_traitsIcESaIcEEEffff
.Ltmp168:
.Ltmp63:
@ BB#25:
.Ltmp169:
	.loc	35 136 28               @ /usr/bin/../lib/gcc/arm-linux-gnueabihf/6.3.0/../../../../include/c++/6.3.0/bits/basic_string.h:136:28
	ldr	r0, [sp, #80]
.Ltmp170:
	@DEBUG_VALUE: deallocate:__p <- %R0
	@DEBUG_VALUE: deallocate:__p <- %R0
	.loc	35 180 6                @ /usr/bin/../lib/gcc/arm-linux-gnueabihf/6.3.0/../../../../include/c++/6.3.0/bits/basic_string.h:180:6
	cmp	r0, r5
	beq	.LBB4_27
.Ltmp171:
@ BB#26:
	@DEBUG_VALUE: deallocate:__p <- %R0
	@DEBUG_VALUE: deallocate:__p <- %R0
	.loc	5 110 9                 @ /usr/bin/../lib/gcc/arm-linux-gnueabihf/6.3.0/../../../../include/c++/6.3.0/ext/new_allocator.h:110:9
	bl	_ZdlPv
.Ltmp172:
.LBB4_27:                               @ %_ZNSt7__cxx1112basic_stringIcSt11char_traitsIcESaIcEED2Ev.exit52
	.loc	36 290 33               @ /usr/bin/../lib/gcc/arm-linux-gnueabihf/6.3.0/../../../../include/c++/6.3.0/bits/char_traits.h:290:33
	movw	r2, :lower16:.L.str.14
	add	r1, sp, #56
.Ltmp173:
	@DEBUG_VALUE: _M_data:this <- %R1
	@DEBUG_VALUE: _M_length:this <- %R1
	@DEBUG_VALUE: _M_set_length:__n <- 13
	@DEBUG_VALUE: _M_set_length:this <- %R1
	@DEBUG_VALUE: _M_data:this <- %R1
	@DEBUG_VALUE: _M_construct<const char *>:__dnew <- 13
	@DEBUG_VALUE: _M_construct<const char *>:this <- %R1
	@DEBUG_VALUE: _M_construct_aux<const char *>:this <- %R1
	@DEBUG_VALUE: _M_construct<const char *>:this <- %R1
	@DEBUG_VALUE: _S_copy_chars:__p <- %R5
	@DEBUG_VALUE: _S_copy:__d <- %R5
	@DEBUG_VALUE: _M_local_data:this <- %R1
	movt	r2, :upper16:.L.str.14
	add	r3, r2, #5
.Ltmp174:
	.loc	35 142 51               @ /usr/bin/../lib/gcc/arm-linux-gnueabihf/6.3.0/../../../../include/c++/6.3.0/bits/basic_string.h:142:51
	add	r5, r1, #8
.Ltmp175:
	.loc	36 290 33               @ /usr/bin/../lib/gcc/arm-linux-gnueabihf/6.3.0/../../../../include/c++/6.3.0/bits/char_traits.h:290:33
	vldr	d17, [r2]
	vld1.8	{d16}, [r3]
	add	r3, r1, #13
	mov	r0, #0
	mov	r2, #13
.Ltmp176:
	.loc	35 110 25               @ /usr/bin/../lib/gcc/arm-linux-gnueabihf/6.3.0/../../../../include/c++/6.3.0/bits/basic_string.h:110:25
	str	r5, [sp, #56]
.Ltmp177:
	@DEBUG_VALUE: _S_copy:__n <- 13
	.loc	3 59 17 discriminator 1 @ /root/Bela/projects/pedal_chain/render.cpp:59:17
	vmov.i32	d2, #0x0
.Ltmp178:
	.loc	36 290 33               @ /usr/bin/../lib/gcc/arm-linux-gnueabihf/6.3.0/../../../../include/c++/6.3.0/bits/char_traits.h:290:33
	vst1.8	{d16}, [r3]
	vstr	d17, [sp, #64]
.Ltmp179:
	@DEBUG_VALUE: _M_length:__length <- 13
	.loc	35 132 26               @ /usr/bin/../lib/gcc/arm-linux-gnueabihf/6.3.0/../../../../include/c++/6.3.0/bits/basic_string.h:132:26
	str	r2, [sp, #60]
.Ltmp180:
	.loc	36 243 14               @ /usr/bin/../lib/gcc/arm-linux-gnueabihf/6.3.0/../../../../include/c++/6.3.0/bits/char_traits.h:243:14
	strb	r0, [sp, #77]
.Ltmp181:
	.loc	3 59 17 discriminator 1 @ /root/Bela/projects/pedal_chain/render.cpp:59:17
.Ltmp65:
	vmov.i32	d0, #0x0
	mov	r0, r4
	vmov.f32	d1, #1.000000e+00
	vmov.f32	s1, s4
	vmov.f32	s3, s4
	bl	_ZN13GuiController9addSliderENSt7__cxx1112basic_stringIcSt11char_traitsIcESaIcEEEffff
.Ltmp182:
.Ltmp66:
.Ltmp183:
	@DEBUG_VALUE: _S_copy:__s <- %R2
@ BB#28:
	@DEBUG_VALUE: _S_copy:__s <- %R2
	.loc	35 136 28               @ /usr/bin/../lib/gcc/arm-linux-gnueabihf/6.3.0/../../../../include/c++/6.3.0/bits/basic_string.h:136:28
	ldr	r0, [sp, #56]
.Ltmp184:
	@DEBUG_VALUE: deallocate:__p <- %R0
	@DEBUG_VALUE: deallocate:__p <- %R0
	.loc	35 180 6                @ /usr/bin/../lib/gcc/arm-linux-gnueabihf/6.3.0/../../../../include/c++/6.3.0/bits/basic_string.h:180:6
	cmp	r0, r5
	beq	.LBB4_30
.Ltmp185:
@ BB#29:
	@DEBUG_VALUE: deallocate:__p <- %R0
	@DEBUG_VALUE: deallocate:__p <- %R0
	@DEBUG_VALUE: _S_copy:__s <- %R2
	.loc	5 110 9                 @ /usr/bin/../lib/gcc/arm-linux-gnueabihf/6.3.0/../../../../include/c++/6.3.0/ext/new_allocator.h:110:9
	bl	_ZdlPv
.Ltmp186:
.LBB4_30:                               @ %_ZNSt7__cxx1112basic_stringIcSt11char_traitsIcESaIcEED2Ev.exit59
	.loc	36 290 33               @ /usr/bin/../lib/gcc/arm-linux-gnueabihf/6.3.0/../../../../include/c++/6.3.0/bits/char_traits.h:290:33
	movw	r3, :lower16:.L.str.15
	add	r1, sp, #32
.Ltmp187:
	@DEBUG_VALUE: _M_data:this <- %R1
	@DEBUG_VALUE: _M_length:this <- %R1
	@DEBUG_VALUE: _M_set_length:__n <- 10
	@DEBUG_VALUE: _M_set_length:this <- %R1
	@DEBUG_VALUE: _M_data:this <- %R1
	@DEBUG_VALUE: _M_construct<const char *>:__dnew <- 10
	@DEBUG_VALUE: _M_construct<const char *>:this <- %R1
	@DEBUG_VALUE: _M_construct_aux<const char *>:this <- %R1
	@DEBUG_VALUE: _M_construct<const char *>:this <- %R1
	@DEBUG_VALUE: _S_copy_chars:__p <- %R5
	@DEBUG_VALUE: _S_copy:__d <- %R5
	@DEBUG_VALUE: _M_local_data:this <- %R1
	movt	r3, :upper16:.L.str.15
.Ltmp188:
	.loc	35 142 51               @ /usr/bin/../lib/gcc/arm-linux-gnueabihf/6.3.0/../../../../include/c++/6.3.0/bits/basic_string.h:142:51
	add	r5, r1, #8
.Ltmp189:
	.loc	36 290 33               @ /usr/bin/../lib/gcc/arm-linux-gnueabihf/6.3.0/../../../../include/c++/6.3.0/bits/char_traits.h:290:33
	vldr	d16, [r3]
	mov	r0, #0
	mov	r2, #10
.Ltmp190:
	@DEBUG_VALUE: _S_copy:__n <- 10
	movw	r3, #28271
.Ltmp191:
	.loc	35 110 25               @ /usr/bin/../lib/gcc/arm-linux-gnueabihf/6.3.0/../../../../include/c++/6.3.0/bits/basic_string.h:110:25
	str	r5, [sp, #32]
.Ltmp192:
	.loc	3 60 17 discriminator 1 @ /root/Bela/projects/pedal_chain/render.cpp:60:17
	vmov.i32	d1, #0x0
.Ltmp193:
	.loc	36 290 33               @ /usr/bin/../lib/gcc/arm-linux-gnueabihf/6.3.0/../../../../include/c++/6.3.0/bits/char_traits.h:290:33
	strh	r3, [sp, #48]
.Ltmp194:
	.loc	3 60 17 discriminator 1 @ /root/Bela/projects/pedal_chain/render.cpp:60:17
	vmov.f32	d2, #1.000000e+00
.Ltmp195:
	.loc	36 290 33               @ /usr/bin/../lib/gcc/arm-linux-gnueabihf/6.3.0/../../../../include/c++/6.3.0/bits/char_traits.h:290:33
	vstr	d16, [sp, #40]
.Ltmp196:
	@DEBUG_VALUE: _M_length:__length <- 10
	.loc	35 132 26               @ /usr/bin/../lib/gcc/arm-linux-gnueabihf/6.3.0/../../../../include/c++/6.3.0/bits/basic_string.h:132:26
	str	r2, [sp, #36]
.Ltmp197:
	.loc	36 243 14               @ /usr/bin/../lib/gcc/arm-linux-gnueabihf/6.3.0/../../../../include/c++/6.3.0/bits/char_traits.h:243:14
	strb	r0, [sp, #50]
.Ltmp198:
	.loc	3 60 17 discriminator 1 @ /root/Bela/projects/pedal_chain/render.cpp:60:17
.Ltmp68:
	vmov.i32	d0, #0x0
	mov	r0, r4
	vmov.f32	s1, s2
	vmov.f32	d1, #1.000000e+00
	vmov.f32	s3, s4
	bl	_ZN13GuiController9addSliderENSt7__cxx1112basic_stringIcSt11char_traitsIcESaIcEEEffff
.Ltmp199:
.Ltmp69:
.Ltmp200:
	@DEBUG_VALUE: _S_copy:__s <- %R3
@ BB#31:
	@DEBUG_VALUE: _S_copy:__s <- %R3
	.loc	35 136 28               @ /usr/bin/../lib/gcc/arm-linux-gnueabihf/6.3.0/../../../../include/c++/6.3.0/bits/basic_string.h:136:28
	ldr	r0, [sp, #32]
.Ltmp201:
	@DEBUG_VALUE: deallocate:__p <- %R0
	@DEBUG_VALUE: deallocate:__p <- %R0
	.loc	35 180 6                @ /usr/bin/../lib/gcc/arm-linux-gnueabihf/6.3.0/../../../../include/c++/6.3.0/bits/basic_string.h:180:6
	cmp	r0, r5
	beq	.LBB4_33
.Ltmp202:
@ BB#32:
	@DEBUG_VALUE: deallocate:__p <- %R0
	@DEBUG_VALUE: deallocate:__p <- %R0
	@DEBUG_VALUE: _S_copy:__s <- %R3
	.loc	5 110 9                 @ /usr/bin/../lib/gcc/arm-linux-gnueabihf/6.3.0/../../../../include/c++/6.3.0/ext/new_allocator.h:110:9
	bl	_ZdlPv
.Ltmp203:
.LBB4_33:                               @ %_ZNSt7__cxx1112basic_stringIcSt11char_traitsIcESaIcEED2Ev.exit60
	add	r0, sp, #8
.Ltmp204:
	@DEBUG_VALUE: _M_construct<const char *>:this <- %R0
	@DEBUG_VALUE: _M_construct_aux<const char *>:this <- %R0
	@DEBUG_VALUE: _M_construct<const char *>:this <- %R0
	@DEBUG_VALUE: _M_local_data:this <- %R0
	.loc	57 215 12               @ /usr/bin/../lib/gcc/arm-linux-gnueabihf/6.3.0/../../../../include/c++/6.3.0/bits/basic_string.tcc:215:12
	mov	r1, #17
.Ltmp205:
	@DEBUG_VALUE: _M_construct<const char *>:__dnew <- 17
	.loc	35 142 51               @ /usr/bin/../lib/gcc/arm-linux-gnueabihf/6.3.0/../../../../include/c++/6.3.0/bits/basic_string.h:142:51
	add	r5, r0, #8
.Ltmp206:
	.loc	35 110 25               @ /usr/bin/../lib/gcc/arm-linux-gnueabihf/6.3.0/../../../../include/c++/6.3.0/bits/basic_string.h:110:25
	str	r5, [sp, #8]
.Ltmp207:
	.loc	57 215 12               @ /usr/bin/../lib/gcc/arm-linux-gnueabihf/6.3.0/../../../../include/c++/6.3.0/bits/basic_string.tcc:215:12
	str	r1, [r11, #-20]
.Ltmp208:
	.loc	57 219 14               @ /usr/bin/../lib/gcc/arm-linux-gnueabihf/6.3.0/../../../../include/c++/6.3.0/bits/basic_string.tcc:219:14
.Ltmp71:
	sub	r1, r11, #20
.Ltmp209:
	@DEBUG_VALUE: _M_construct<const char *>:__dnew <- [%R1+0]
	mov	r2, #0
	mov	r6, #0
	bl	_ZNSt7__cxx1112basic_stringIcSt11char_traitsIcESaIcEE9_M_createERjj
.Ltmp210:
.Ltmp72:
.Ltmp211:
@ BB#34:                                @ %.noexc44
	.loc	36 290 33               @ /usr/bin/../lib/gcc/arm-linux-gnueabihf/6.3.0/../../../../include/c++/6.3.0/bits/char_traits.h:290:33
	movw	r1, :lower16:.L.str.16
.Ltmp212:
	.loc	57 220 18               @ /usr/bin/../lib/gcc/arm-linux-gnueabihf/6.3.0/../../../../include/c++/6.3.0/bits/basic_string.tcc:220:18
	ldr	r2, [r11, #-20]
.Ltmp213:
	@DEBUG_VALUE: _M_capacity:__capacity <- %R2
	@DEBUG_VALUE: _M_set_length:__n <- %R2
	@DEBUG_VALUE: _M_length:__length <- %R2
	@DEBUG_VALUE: _M_construct<const char *>:__dnew <- %R2
	.loc	36 290 33               @ /usr/bin/../lib/gcc/arm-linux-gnueabihf/6.3.0/../../../../include/c++/6.3.0/bits/char_traits.h:290:33
	movt	r1, :upper16:.L.str.16
	vld1.64	{d16, d17}, [r1]
	mov	r1, #116
.Ltmp214:
	.loc	3 61 17 discriminator 1 @ /root/Bela/projects/pedal_chain/render.cpp:61:17
	vmov.i32	d2, #0x0
.Ltmp215:
	.loc	35 128 26               @ /usr/bin/../lib/gcc/arm-linux-gnueabihf/6.3.0/../../../../include/c++/6.3.0/bits/basic_string.h:128:26
	str	r0, [sp, #8]
.Ltmp216:
	@DEBUG_VALUE: _M_data:__p <- %R0
	.loc	35 160 31               @ /usr/bin/../lib/gcc/arm-linux-gnueabihf/6.3.0/../../../../include/c++/6.3.0/bits/basic_string.h:160:31
	str	r2, [sp, #16]
.Ltmp217:
	@DEBUG_VALUE: _S_copy:__d <- %R0
	@DEBUG_VALUE: _S_copy:__n <- 17
	.loc	36 290 33               @ /usr/bin/../lib/gcc/arm-linux-gnueabihf/6.3.0/../../../../include/c++/6.3.0/bits/char_traits.h:290:33
	vst1.8	{d16, d17}, [r0]!
.Ltmp218:
	strb	r1, [r0]
	add	r1, sp, #8
.Ltmp219:
	@DEBUG_VALUE: _M_data:this <- %R1
	@DEBUG_VALUE: _M_length:this <- %R1
	@DEBUG_VALUE: _M_set_length:this <- %R1
	@DEBUG_VALUE: _M_data:this <- %R1
	@DEBUG_VALUE: _M_capacity:this <- %R1
	@DEBUG_VALUE: _M_data:this <- %R1
	.loc	35 132 26               @ /usr/bin/../lib/gcc/arm-linux-gnueabihf/6.3.0/../../../../include/c++/6.3.0/bits/basic_string.h:132:26
	str	r2, [sp, #12]
.Ltmp220:
	.loc	35 136 28               @ /usr/bin/../lib/gcc/arm-linux-gnueabihf/6.3.0/../../../../include/c++/6.3.0/bits/basic_string.h:136:28
	ldr	r0, [sp, #8]
.Ltmp221:
	.loc	36 243 14               @ /usr/bin/../lib/gcc/arm-linux-gnueabihf/6.3.0/../../../../include/c++/6.3.0/bits/char_traits.h:243:14
	strb	r6, [r0, r2]
.Ltmp222:
	.loc	3 61 17 discriminator 1 @ /root/Bela/projects/pedal_chain/render.cpp:61:17
.Ltmp74:
	vmov.i32	d0, #0x0
	mov	r0, r4
	vmov.f32	d1, #1.000000e+00
	vmov.f32	s1, s4
	vmov.f32	s3, s4
	bl	_ZN13GuiController9addSliderENSt7__cxx1112basic_stringIcSt11char_traitsIcESaIcEEEffff
.Ltmp223:
.Ltmp75:
.Ltmp224:
	@DEBUG_VALUE: _S_copy:__s <- %R1
@ BB#35:
	@DEBUG_VALUE: _S_copy:__s <- %R1
	.loc	35 136 28               @ /usr/bin/../lib/gcc/arm-linux-gnueabihf/6.3.0/../../../../include/c++/6.3.0/bits/basic_string.h:136:28
	ldr	r0, [sp, #8]
.Ltmp225:
	@DEBUG_VALUE: deallocate:__p <- %R0
	@DEBUG_VALUE: deallocate:__p <- %R0
	mov	r4, #1
.Ltmp226:
	.loc	35 180 6                @ /usr/bin/../lib/gcc/arm-linux-gnueabihf/6.3.0/../../../../include/c++/6.3.0/bits/basic_string.h:180:6
	cmp	r0, r5
	beq	.LBB4_37
.Ltmp227:
@ BB#36:
	@DEBUG_VALUE: deallocate:__p <- %R0
	@DEBUG_VALUE: deallocate:__p <- %R0
	@DEBUG_VALUE: _S_copy:__s <- %R1
	.loc	5 110 9                 @ /usr/bin/../lib/gcc/arm-linux-gnueabihf/6.3.0/../../../../include/c++/6.3.0/ext/new_allocator.h:110:9
	bl	_ZdlPv
.Ltmp228:
.LBB4_37:                               @ %_ZNSt7__cxx1112basic_stringIcSt11char_traitsIcESaIcEED2Ev.exit32
	.loc	3 64 1 discriminator 12 @ /root/Bela/projects/pedal_chain/render.cpp:64:1
	mov	r0, r4
	sub	sp, r11, #16
	pop	{r4, r5, r6, r10, r11, pc}
.LBB4_38:
.Ltmp229:
	@DEBUG_VALUE: _S_copy:__n <- %R5
	@DEBUG_VALUE: assign:__c2 <- %R4
	@DEBUG_VALUE: _S_copy:__s <- %R4
	@DEBUG_VALUE: _S_copy_chars:__k1 <- %R4
	@DEBUG_VALUE: _M_construct<const char *>:__beg <- %R4
	@DEBUG_VALUE: _M_construct_aux<const char *>:__beg <- %R4
	@DEBUG_VALUE: _M_construct<const char *>:__beg <- %R4
	@DEBUG_VALUE: length:__s <- %R4
	@DEBUG_VALUE: basic_string:__s <- %R4
.Ltmp55:
	b	.LBB4_41
.Ltmp230:
.LBB4_39:
	@DEBUG_VALUE: _S_copy:__s <- %R1
.Ltmp76:
	mov	r4, r0
.Ltmp231:
	.loc	35 136 28               @ /usr/bin/../lib/gcc/arm-linux-gnueabihf/6.3.0/../../../../include/c++/6.3.0/bits/basic_string.h:136:28
	ldr	r0, [sp, #8]
	b	.LBB4_46
.Ltmp232:
.LBB4_40:
.Ltmp73:
.LBB4_41:                               @ %_ZNSt7__cxx1112basic_stringIcSt11char_traitsIcESaIcEED2Ev.exit22
	mov	r4, r0
	b	.LBB4_50
.LBB4_42:
.Ltmp233:
	@DEBUG_VALUE: _S_copy:__s <- %R3
.Ltmp70:
	mov	r4, r0
.Ltmp234:
	.loc	35 136 28 is_stmt 0     @ /usr/bin/../lib/gcc/arm-linux-gnueabihf/6.3.0/../../../../include/c++/6.3.0/bits/basic_string.h:136:28
	ldr	r0, [sp, #32]
	b	.LBB4_46
.Ltmp235:
.LBB4_43:
	@DEBUG_VALUE: _S_copy:__s <- %R2
.Ltmp67:
	mov	r4, r0
.Ltmp236:
	.loc	35 136 28               @ /usr/bin/../lib/gcc/arm-linux-gnueabihf/6.3.0/../../../../include/c++/6.3.0/bits/basic_string.h:136:28
	ldr	r0, [sp, #56]
	b	.LBB4_46
.Ltmp237:
.LBB4_44:
.Ltmp64:
	mov	r4, r0
.Ltmp238:
	.loc	35 136 28               @ /usr/bin/../lib/gcc/arm-linux-gnueabihf/6.3.0/../../../../include/c++/6.3.0/bits/basic_string.h:136:28
	ldr	r0, [sp, #80]
	b	.LBB4_46
.Ltmp239:
.LBB4_45:
.Ltmp61:
	mov	r4, r0
.Ltmp240:
	.loc	35 136 28               @ /usr/bin/../lib/gcc/arm-linux-gnueabihf/6.3.0/../../../../include/c++/6.3.0/bits/basic_string.h:136:28
	ldr	r0, [r11, #-96]
.Ltmp241:
.LBB4_46:
	@DEBUG_VALUE: deallocate:__p <- %R0
	@DEBUG_VALUE: deallocate:__p <- %R0
	.loc	35 180 6 is_stmt 1      @ /usr/bin/../lib/gcc/arm-linux-gnueabihf/6.3.0/../../../../include/c++/6.3.0/bits/basic_string.h:180:6
	cmp	r0, r5
	beq	.LBB4_50
	b	.LBB4_51
.Ltmp242:
.LBB4_47:
	@DEBUG_VALUE: assign:__c2 <- %R4
	@DEBUG_VALUE: _S_copy:__s <- %R4
	@DEBUG_VALUE: _S_copy_chars:__k1 <- %R4
	@DEBUG_VALUE: _M_construct<const char *>:__beg <- %R4
	@DEBUG_VALUE: _M_construct_aux<const char *>:__beg <- %R4
	@DEBUG_VALUE: _M_construct<const char *>:__beg <- %R4
	@DEBUG_VALUE: length:__s <- %R4
	@DEBUG_VALUE: basic_string:__s <- %R4
.Ltmp58:
	mov	r4, r0
.Ltmp243:
	.loc	35 136 28               @ /usr/bin/../lib/gcc/arm-linux-gnueabihf/6.3.0/../../../../include/c++/6.3.0/bits/basic_string.h:136:28
	ldr	r0, [r11, #-72]
.Ltmp244:
	@DEBUG_VALUE: deallocate:__p <- %R0
	@DEBUG_VALUE: deallocate:__p <- %R0
	.loc	35 180 6                @ /usr/bin/../lib/gcc/arm-linux-gnueabihf/6.3.0/../../../../include/c++/6.3.0/bits/basic_string.h:180:6
	cmp	r0, r5
	beq	.LBB4_49
.Ltmp245:
@ BB#48:
	@DEBUG_VALUE: deallocate:__p <- %R0
	@DEBUG_VALUE: deallocate:__p <- %R0
	.loc	5 110 9                 @ /usr/bin/../lib/gcc/arm-linux-gnueabihf/6.3.0/../../../../include/c++/6.3.0/ext/new_allocator.h:110:9
	bl	_ZdlPv
.Ltmp246:
.LBB4_49:                               @ %_ZNSt7__cxx1112basic_stringIcSt11char_traitsIcESaIcEED2Ev.exit31
	.loc	35 136 28               @ /usr/bin/../lib/gcc/arm-linux-gnueabihf/6.3.0/../../../../include/c++/6.3.0/bits/basic_string.h:136:28
	ldr	r0, [r11, #-48]
.Ltmp247:
	@DEBUG_VALUE: deallocate:__p <- %R0
	@DEBUG_VALUE: deallocate:__p <- %R0
	.loc	35 180 6                @ /usr/bin/../lib/gcc/arm-linux-gnueabihf/6.3.0/../../../../include/c++/6.3.0/bits/basic_string.h:180:6
	cmp	r0, r6
	bne	.LBB4_51
.Ltmp248:
.LBB4_50:                               @ %_ZNSt7__cxx1112basic_stringIcSt11char_traitsIcESaIcEED2Ev.exit22
	mov	r0, r4
	mov	lr, pc
	b	_Unwind_Resume
.LBB4_51:
.Ltmp249:
	.loc	5 110 9                 @ /usr/bin/../lib/gcc/arm-linux-gnueabihf/6.3.0/../../../../include/c++/6.3.0/ext/new_allocator.h:110:9
	bl	_ZdlPv
	mov	r0, r4
	mov	lr, pc
	b	_Unwind_Resume
.Ltmp250:
.Lfunc_end4:
	.size	setup, .Lfunc_end4-setup
	.cfi_endproc
	.file	58 "/usr/bin/../lib/gcc/arm-linux-gnueabihf/6.3.0/../../../../include/c++/6.3.0/bits" "stl_iterator_base_types.h"
	.globl	__gxx_personality_v0
	.personality __gxx_personality_v0
	.handlerdata
	.p2align	2
GCC_except_table4:
.Lexception0:
	.byte	255                     @ @LPStart Encoding = omit
	.byte	0                       @ @TType Encoding = absptr
	.asciz	"\222\201\200"          @ @TType base offset
	.byte	3                       @ Call site Encoding = udata4
	.ascii	"\217\001"              @ Call site table length
	.long	.Lfunc_begin4-.Lfunc_begin4 @ >> Call Site 1 <<
	.long	.Ltmp53-.Lfunc_begin4   @   Call between .Lfunc_begin4 and .Ltmp53
	.long	0                       @     has no landing pad
	.byte	0                       @   On action: cleanup
	.long	.Ltmp53-.Lfunc_begin4   @ >> Call Site 2 <<
	.long	.Ltmp54-.Ltmp53         @   Call between .Ltmp53 and .Ltmp54
	.long	.Ltmp55-.Lfunc_begin4   @     jumps to .Ltmp55
	.byte	0                       @   On action: cleanup
	.long	.Ltmp54-.Lfunc_begin4   @ >> Call Site 3 <<
	.long	.Ltmp56-.Ltmp54         @   Call between .Ltmp54 and .Ltmp56
	.long	0                       @     has no landing pad
	.byte	0                       @   On action: cleanup
	.long	.Ltmp56-.Lfunc_begin4   @ >> Call Site 4 <<
	.long	.Ltmp57-.Ltmp56         @   Call between .Ltmp56 and .Ltmp57
	.long	.Ltmp58-.Lfunc_begin4   @     jumps to .Ltmp58
	.byte	0                       @   On action: cleanup
	.long	.Ltmp59-.Lfunc_begin4   @ >> Call Site 5 <<
	.long	.Ltmp60-.Ltmp59         @   Call between .Ltmp59 and .Ltmp60
	.long	.Ltmp61-.Lfunc_begin4   @     jumps to .Ltmp61
	.byte	0                       @   On action: cleanup
	.long	.Ltmp62-.Lfunc_begin4   @ >> Call Site 6 <<
	.long	.Ltmp63-.Ltmp62         @   Call between .Ltmp62 and .Ltmp63
	.long	.Ltmp64-.Lfunc_begin4   @     jumps to .Ltmp64
	.byte	0                       @   On action: cleanup
	.long	.Ltmp65-.Lfunc_begin4   @ >> Call Site 7 <<
	.long	.Ltmp66-.Ltmp65         @   Call between .Ltmp65 and .Ltmp66
	.long	.Ltmp67-.Lfunc_begin4   @     jumps to .Ltmp67
	.byte	0                       @   On action: cleanup
	.long	.Ltmp68-.Lfunc_begin4   @ >> Call Site 8 <<
	.long	.Ltmp69-.Ltmp68         @   Call between .Ltmp68 and .Ltmp69
	.long	.Ltmp70-.Lfunc_begin4   @     jumps to .Ltmp70
	.byte	0                       @   On action: cleanup
	.long	.Ltmp71-.Lfunc_begin4   @ >> Call Site 9 <<
	.long	.Ltmp72-.Ltmp71         @   Call between .Ltmp71 and .Ltmp72
	.long	.Ltmp73-.Lfunc_begin4   @     jumps to .Ltmp73
	.byte	0                       @   On action: cleanup
	.long	.Ltmp74-.Lfunc_begin4   @ >> Call Site 10 <<
	.long	.Ltmp75-.Ltmp74         @   Call between .Ltmp74 and .Ltmp75
	.long	.Ltmp76-.Lfunc_begin4   @     jumps to .Ltmp76
	.byte	0                       @   On action: cleanup
	.long	.Ltmp75-.Lfunc_begin4   @ >> Call Site 11 <<
	.long	.Lfunc_end4-.Ltmp75     @   Call between .Ltmp75 and .Lfunc_end4
	.long	0                       @     has no landing pad
	.byte	0                       @   On action: cleanup
	.p2align	2
	.fnend

	.globl	render
	.p2align	2
	.type	render,%function
render:                                 @ @render
.Lfunc_begin5:
	.loc	3 67 0                  @ /root/Bela/projects/pedal_chain/render.cpp:67:0
	.fnstart
	.cfi_startproc
@ BB#0:
	.save	{r4, r5, r6, r7, r8, r9, r10, r11, lr}
	push	{r4, r5, r6, r7, r8, r9, r10, r11, lr}
.Ltmp251:
	.cfi_def_cfa_offset 36
.Ltmp252:
	.cfi_offset lr, -4
.Ltmp253:
	.cfi_offset r11, -8
.Ltmp254:
	.cfi_offset r10, -12
.Ltmp255:
	.cfi_offset r9, -16
.Ltmp256:
	.cfi_offset r8, -20
.Ltmp257:
	.cfi_offset r7, -24
.Ltmp258:
	.cfi_offset r6, -28
.Ltmp259:
	.cfi_offset r5, -32
.Ltmp260:
	.cfi_offset r4, -36
	.setfp	r11, sp, #28
	add	r11, sp, #28
.Ltmp261:
	.cfi_def_cfa r11, 8
	.pad	#4
	sub	sp, sp, #4
	.vsave	{d8, d9, d10, d11}
	vpush	{d8, d9, d10, d11}
.Ltmp262:
	.cfi_offset d11, -48
.Ltmp263:
	.cfi_offset d10, -56
.Ltmp264:
	.cfi_offset d9, -64
.Ltmp265:
	.cfi_offset d8, -72
	@DEBUG_VALUE: render:context <- %R0
	@DEBUG_VALUE: render:userData <- %R1
	mov	r4, r0
.Ltmp266:
	@DEBUG_VALUE: n <- 0
	@DEBUG_VALUE: render:context <- %R4
	.loc	3 68 39 prologue_end discriminator 1 @ /root/Bela/projects/pedal_chain/render.cpp:68:39
	ldr	r0, [r4, #20]
	.loc	3 68 2 is_stmt 0 discriminator 1 @ /root/Bela/projects/pedal_chain/render.cpp:68:2
	cmp	r0, #0
	beq	.LBB5_35
.Ltmp267:
@ BB#1:                                 @ %.lr.ph64
	@DEBUG_VALUE: render:context <- %R4
	@DEBUG_VALUE: render:userData <- %R1
	.file	59 "./include" "Utilities.h"
	.loc	59 73 64 is_stmt 1      @ ./include/Utilities.h:73:64
	vmov.f32	d10, #5.000000e+00
.Ltmp268:
	.loc	3 75 7                  @ /root/Bela/projects/pedal_chain/render.cpp:75:7
	movw	r6, :lower16:.L_MergedGlobals
.Ltmp269:
	.loc	3 91 23                 @ /root/Bela/projects/pedal_chain/render.cpp:91:23
	vmov.i32	d11, #0x0
.Ltmp270:
	.loc	3 106 14                @ /root/Bela/projects/pedal_chain/render.cpp:106:14
	movw	r10, :lower16:.L_MergedGlobals.5
.Ltmp271:
	.loc	59 73 44                @ ./include/Utilities.h:73:44
	vldr	s18, .LCPI5_0
	mov	r7, #0
.Ltmp272:
	.loc	3 75 7                  @ /root/Bela/projects/pedal_chain/render.cpp:75:7
	movt	r6, :upper16:.L_MergedGlobals
.Ltmp273:
	.loc	3 106 14                @ /root/Bela/projects/pedal_chain/render.cpp:106:14
	movt	r10, :upper16:.L_MergedGlobals.5
	mov	r8, #0
.Ltmp274:
.LBB5_2:                                @ =>This Loop Header: Depth=1
                                        @     Child Loop BB5_30 Depth 2
                                        @     Child Loop BB5_33 Depth 2
	@DEBUG_VALUE: in <- 0.000000e+00
	.loc	3 75 7                  @ /root/Bela/projects/pedal_chain/render.cpp:75:7
	ldrb	r0, [r6]
.Ltmp275:
	.loc	3 75 7 is_stmt 0        @ /root/Bela/projects/pedal_chain/render.cpp:75:7
	cmp	r0, #0
	beq	.LBB5_4
@ BB#3:                                 @   in Loop: Header=BB5_2 Depth=1
	ldr	r1, [r4, #24]
	ldr	r0, [r4]
.Ltmp276:
	.loc	32 1455 32 is_stmt 1    @ ./include/Bela.h:1455:32
	mul	r1, r1, r8
	add	r0, r0, r1, lsl #2
	.loc	32 1455 9 is_stmt 0     @ ./include/Bela.h:1455:9
	vldr	s0, [r0]
.Ltmp277:
	.loc	32 1455 9               @ ./include/Bela.h:1455:9
	vldr	s2, [r0, #4]
.Ltmp278:
	.loc	3 78 34 is_stmt 1       @ /root/Bela/projects/pedal_chain/render.cpp:78:34
	vadd.f32	d8, d1, d0
.Ltmp279:
	@DEBUG_VALUE: in <- %S16
	b	.LBB5_5
.Ltmp280:
.LBB5_4:                                @   in Loop: Header=BB5_2 Depth=1
	.loc	3 76 17                 @ /root/Bela/projects/pedal_chain/render.cpp:76:17
	movw	r0, :lower16:gPlayer
	movt	r0, :upper16:gPlayer
	bl	_ZN14MonoFilePlayer7processEv
	vorr	d8, d0, d0
.Ltmp281:
	@DEBUG_VALUE: in <- %S16
.LBB5_5:                                @   in Loop: Header=BB5_2 Depth=1
	@DEBUG_VALUE: in <- %S16
	.loc	3 83 7                  @ /root/Bela/projects/pedal_chain/render.cpp:83:7
	ldrb	r0, [r6, #1]
.Ltmp282:
	.loc	3 83 7 is_stmt 0        @ /root/Bela/projects/pedal_chain/render.cpp:83:7
	cmp	r0, #0
	beq	.LBB5_7
.Ltmp283:
@ BB#6:                                 @   in Loop: Header=BB5_2 Depth=1
	@DEBUG_VALUE: in <- %S16
	.loc	3 89 37 is_stmt 1       @ /root/Bela/projects/pedal_chain/render.cpp:89:37
	add	r5, r10, #48
	mov	r1, #0
	mov	r0, r5
	bl	_ZN13GuiController14getSliderValueEi
                                        @ kill: %S0<def> %S0<kill> %D0<def>
	.loc	3 90 37                 @ /root/Bela/projects/pedal_chain/render.cpp:90:37
	mov	r1, #1
	.loc	3 89 22                 @ /root/Bela/projects/pedal_chain/render.cpp:89:22
	vcvt.u32.f32	d0, d0
	vmov	r0, s0
	.loc	3 89 20 is_stmt 0       @ /root/Bela/projects/pedal_chain/render.cpp:89:20
	str	r0, [r6, #12]
	.loc	3 90 37 is_stmt 1       @ /root/Bela/projects/pedal_chain/render.cpp:90:37
	mov	r0, r5
	bl	_ZN13GuiController14getSliderValueEi
	.loc	3 91 38                 @ /root/Bela/projects/pedal_chain/render.cpp:91:38
	mov	r0, r5
	mov	r1, #2
	.loc	3 90 20                 @ /root/Bela/projects/pedal_chain/render.cpp:90:20
	vstr	s0, [r6, #20]
	.loc	3 91 38                 @ /root/Bela/projects/pedal_chain/render.cpp:91:38
	bl	_ZN13GuiController14getSliderValueEi
	.loc	3 91 23 is_stmt 0       @ /root/Bela/projects/pedal_chain/render.cpp:91:23
	vcmpe.f32	s0, s22
	mov	r0, #0
	vmrs	APSR_nzcv, fpscr
	.loc	3 92 38 is_stmt 1       @ /root/Bela/projects/pedal_chain/render.cpp:92:38
	mov	r1, #3
	.loc	3 91 23                 @ /root/Bela/projects/pedal_chain/render.cpp:91:23
	movwne	r0, #1
	.loc	3 91 21 is_stmt 0       @ /root/Bela/projects/pedal_chain/render.cpp:91:21
	strb	r0, [r6, #2]
	.loc	3 92 38 is_stmt 1       @ /root/Bela/projects/pedal_chain/render.cpp:92:38
	mov	r0, r5
	bl	_ZN13GuiController14getSliderValueEi
	.loc	3 92 21 is_stmt 0       @ /root/Bela/projects/pedal_chain/render.cpp:92:21
	vstr	s0, [r6, #16]
	b	.LBB5_9
.Ltmp284:
.LBB5_7:                                @   in Loop: Header=BB5_2 Depth=1
	@DEBUG_VALUE: in <- %S16
	.loc	3 84 8 is_stmt 1        @ /root/Bela/projects/pedal_chain/render.cpp:84:8
	tst	r8, #1
	bne	.LBB5_9
.Ltmp285:
@ BB#8:                                 @   in Loop: Header=BB5_2 Depth=1
	@DEBUG_VALUE: in <- %S16
	ldr	r1, [r4, #40]
.Ltmp286:
	.loc	3 85 42                 @ /root/Bela/projects/pedal_chain/render.cpp:85:42
	lsr	r2, r8, #1
	ldr	r0, [r4, #8]
.Ltmp287:
	.loc	32 1477 33              @ ./include/Bela.h:1477:33
	mul	r1, r1, r2
	.loc	32 1477 9 is_stmt 0     @ ./include/Bela.h:1477:9
	ldr	r1, [r0, r1, lsl #2]!
.Ltmp288:
	.loc	3 85 19 is_stmt 1       @ /root/Bela/projects/pedal_chain/render.cpp:85:19
	str	r1, [r6, #16]
.Ltmp289:
	.loc	32 1477 9               @ ./include/Bela.h:1477:9
	ldr	r0, [r0, #4]
.Ltmp290:
	.loc	3 86 21                 @ /root/Bela/projects/pedal_chain/render.cpp:86:21
	str	r0, [r6, #20]
.Ltmp291:
.LBB5_9:                                @   in Loop: Header=BB5_2 Depth=1
	@DEBUG_VALUE: in <- %S16
	.loc	3 95 7                  @ /root/Bela/projects/pedal_chain/render.cpp:95:7
	ldrb	r0, [r6, #2]
.Ltmp292:
	.loc	3 95 7 is_stmt 0        @ /root/Bela/projects/pedal_chain/render.cpp:95:7
	cmp	r0, #0
	beq	.LBB5_11
.Ltmp293:
@ BB#10:                                @   in Loop: Header=BB5_2 Depth=1
	@DEBUG_VALUE: in <- %S16
	@DEBUG_VALUE: out <- %S16
	.loc	3 97 18 is_stmt 1       @ /root/Bela/projects/pedal_chain/render.cpp:97:18
	vmov.f32	s0, s16
	movw	r0, :lower16:distort
	.loc	3 97 31 is_stmt 0       @ /root/Bela/projects/pedal_chain/render.cpp:97:31
	vldr	s1, [r6, #16]
	.loc	3 97 18                 @ /root/Bela/projects/pedal_chain/render.cpp:97:18
	movt	r0, :upper16:distort
	bl	_ZN10Distortion7processEff
	vmov.f64	d8, d0
.Ltmp294:
	@DEBUG_VALUE: out <- %S16
.LBB5_11:                               @   in Loop: Header=BB5_2 Depth=1
	.loc	3 100 7 is_stmt 1       @ /root/Bela/projects/pedal_chain/render.cpp:100:7
	ldr	r0, [r6, #12]
.Ltmp295:
	.loc	3 100 7 is_stmt 0       @ /root/Bela/projects/pedal_chain/render.cpp:100:7
	cmp	r0, #2
	beq	.LBB5_14
@ BB#12:                                @   in Loop: Header=BB5_2 Depth=1
	cmp	r0, #1
	bne	.LBB5_16
@ BB#13:                                @   in Loop: Header=BB5_2 Depth=1
.Ltmp296:
	.loc	3 101 17 is_stmt 1      @ /root/Bela/projects/pedal_chain/render.cpp:101:17
	vmov.f32	s0, s16
	.loc	3 101 30 is_stmt 0      @ /root/Bela/projects/pedal_chain/render.cpp:101:30
	vldr	s1, [r6, #20]
	.loc	3 101 17                @ /root/Bela/projects/pedal_chain/render.cpp:101:17
	add	r0, r6, #48
	bl	_ZN13Reverberation7processEff
	b	.LBB5_15
.Ltmp297:
.LBB5_14:                               @   in Loop: Header=BB5_2 Depth=1
	.loc	3 105 21 is_stmt 1      @ /root/Bela/projects/pedal_chain/render.cpp:105:21
	vldr	s0, [r6, #20]
.Ltmp298:
	@DEBUG_VALUE: map:out_max <- 1.000000e+02
	@DEBUG_VALUE: map:out_min <- 5.000000e+00
	@DEBUG_VALUE: map:in_max <- 1.000000e+00
	@DEBUG_VALUE: map:in_min <- 0.000000e+00
	.loc	3 106 14                @ /root/Bela/projects/pedal_chain/render.cpp:106:14
	mov	r0, r10
.Ltmp299:
	.loc	59 73 44                @ ./include/Utilities.h:73:44
	vmul.f32	d16, d0, d9
.Ltmp300:
	.loc	3 106 14                @ /root/Bela/projects/pedal_chain/render.cpp:106:14
	vmov.f32	s0, s16
.Ltmp301:
	.loc	59 73 64                @ ./include/Utilities.h:73:64
	vadd.f32	d1, d16, d10
.Ltmp302:
	@DEBUG_VALUE: size <- %S2
	.loc	3 106 14                @ /root/Bela/projects/pedal_chain/render.cpp:106:14
	vmov.f32	s1, s2
	bl	_ZN10isr_simple7processEff
.Ltmp303:
.LBB5_15:                               @   in Loop: Header=BB5_2 Depth=1
	vmov.f64	d8, d0
.Ltmp304:
	@DEBUG_VALUE: out <- %S16
.LBB5_16:                               @   in Loop: Header=BB5_2 Depth=1
	.loc	3 109 7                 @ /root/Bela/projects/pedal_chain/render.cpp:109:7
	ldrb	r0, [r6, #1]
.Ltmp305:
	.loc	3 109 7 is_stmt 0       @ /root/Bela/projects/pedal_chain/render.cpp:109:7
	cmp	r0, #0
	bne	.LBB5_26
@ BB#17:                                @   in Loop: Header=BB5_2 Depth=1
	ldr	r0, [r4, #16]
.Ltmp306:
	.loc	3 113 26 is_stmt 1 discriminator 1 @ /root/Bela/projects/pedal_chain/render.cpp:113:26
	ldr	r1, [r6, #4]
.Ltmp307:
	.loc	32 1515 12              @ ./include/Bela.h:1515:12
	ldr	r0, [r0, r8, lsl #2]
.Ltmp308:
	.loc	3 113 23                @ /root/Bela/projects/pedal_chain/render.cpp:113:23
	cmp	r1, #1
.Ltmp309:
	.loc	32 1515 56              @ ./include/Bela.h:1515:56
	ubfx	r5, r0, #17, #1
.Ltmp310:
	@DEBUG_VALUE: status2 <- %R5
	.loc	32 1515 56 is_stmt 0    @ ./include/Bela.h:1515:56
	ubfx	r9, r0, #16, #1
.Ltmp311:
	@DEBUG_VALUE: status1 <- %R9
	bne	.LBB5_19
.Ltmp312:
@ BB#18:                                @   in Loop: Header=BB5_2 Depth=1
	@DEBUG_VALUE: status1 <- %R9
	@DEBUG_VALUE: status2 <- %R5
	cmp	r9, #0
.Ltmp313:
	.loc	3 114 22 is_stmt 1      @ /root/Bela/projects/pedal_chain/render.cpp:114:22
	ldrbeq	r0, [r6, #2]
	.loc	3 114 19 is_stmt 0      @ /root/Bela/projects/pedal_chain/render.cpp:114:19
	eoreq	r0, r0, #1
	strbeq	r0, [r6, #2]
.Ltmp314:
.LBB5_19:                               @   in Loop: Header=BB5_2 Depth=1
	@DEBUG_VALUE: status1 <- %R9
	@DEBUG_VALUE: status2 <- %R5
	.loc	3 116 23 is_stmt 1      @ /root/Bela/projects/pedal_chain/render.cpp:116:23
	cmp	r5, #0
	.loc	3 116 26 is_stmt 0 discriminator 1 @ /root/Bela/projects/pedal_chain/render.cpp:116:26
	ldreq	r0, [r6, #8]
	cmpeq	r0, #1
	bne	.LBB5_25
.Ltmp315:
@ BB#20:                                @   in Loop: Header=BB5_2 Depth=1
	@DEBUG_VALUE: status1 <- %R9
	@DEBUG_VALUE: status2 <- %R5
	.loc	3 117 9 is_stmt 1       @ /root/Bela/projects/pedal_chain/render.cpp:117:9
	ldr	r0, [r6, #12]
.Ltmp316:
	.loc	3 117 9 is_stmt 0       @ /root/Bela/projects/pedal_chain/render.cpp:117:9
	cmp	r0, #2
	beq	.LBB5_23
.Ltmp317:
@ BB#21:                                @   in Loop: Header=BB5_2 Depth=1
	@DEBUG_VALUE: status1 <- %R9
	@DEBUG_VALUE: status2 <- %R5
	cmp	r0, #1
	bne	.LBB5_24
.Ltmp318:
@ BB#22:                                @   in Loop: Header=BB5_2 Depth=1
	@DEBUG_VALUE: status1 <- %R9
	@DEBUG_VALUE: status2 <- %R5
	.loc	3 118 13 is_stmt 1      @ /root/Bela/projects/pedal_chain/render.cpp:118:13
	add	r0, r6, #48
	bl	_ZN13Reverberation5resetEv
	b	.LBB5_24
.Ltmp319:
.LBB5_23:                               @   in Loop: Header=BB5_2 Depth=1
	@DEBUG_VALUE: status1 <- %R9
	@DEBUG_VALUE: status2 <- %R5
	.loc	3 120 10                @ /root/Bela/projects/pedal_chain/render.cpp:120:10
	mov	r0, r10
	bl	_ZN10isr_simple5resetEv
.Ltmp320:
.LBB5_24:                               @   in Loop: Header=BB5_2 Depth=1
	@DEBUG_VALUE: status1 <- %R9
	@DEBUG_VALUE: status2 <- %R5
	.loc	3 122 21                @ /root/Bela/projects/pedal_chain/render.cpp:122:21
	ldr	r0, [r6, #12]
	.loc	3 122 39 is_stmt 0      @ /root/Bela/projects/pedal_chain/render.cpp:122:39
	movw	r1, #43691
	movt	r1, #43690
	.loc	3 122 34                @ /root/Bela/projects/pedal_chain/render.cpp:122:34
	add	r0, r0, #1
	.loc	3 122 39                @ /root/Bela/projects/pedal_chain/render.cpp:122:39
	umull	r1, r2, r0, r1
	lsr	r1, r2, #1
	add	r1, r1, r1, lsl #1
	sub	r0, r0, r1
	.loc	3 122 18                @ /root/Bela/projects/pedal_chain/render.cpp:122:18
	str	r0, [r6, #12]
.Ltmp321:
.LBB5_25:                               @   in Loop: Header=BB5_2 Depth=1
	@DEBUG_VALUE: status1 <- %R9
	@DEBUG_VALUE: status2 <- %R5
	.loc	3 125 23 is_stmt 1      @ /root/Bela/projects/pedal_chain/render.cpp:125:23
	str	r9, [r6, #4]
	.loc	3 126 23                @ /root/Bela/projects/pedal_chain/render.cpp:126:23
	str	r5, [r6, #8]
.Ltmp322:
.LBB5_26:                               @ %.preheader
                                        @   in Loop: Header=BB5_2 Depth=1
	.loc	3 129 52 discriminator 1 @ /root/Bela/projects/pedal_chain/render.cpp:129:52
	ldr	r0, [r4, #28]
	.loc	3 129 3 is_stmt 0 discriminator 1 @ /root/Bela/projects/pedal_chain/render.cpp:129:3
	cmp	r0, #0
	beq	.LBB5_34
@ BB#27:                                @ %.lr.ph
                                        @   in Loop: Header=BB5_2 Depth=1
	ldr	r1, [r4, #4]
	mov	r2, #0
	cmp	r0, #3
	bls	.LBB5_32
@ BB#28:                                @ %min.iters.checked
                                        @   in Loop: Header=BB5_2 Depth=1
	mov	r5, r0
	bfc	r5, #0, #2
	cmp	r5, #0
	beq	.LBB5_32
@ BB#29:                                @ %vector.ph
                                        @   in Loop: Header=BB5_2 Depth=1
	mla	r2, r0, r7, r1
	vdup.32	q8, d8[0]
	.loc	3 129 77 discriminator 3 @ /root/Bela/projects/pedal_chain/render.cpp:129:77
	mov	r3, r5
.LBB5_30:                               @ %vector.body
                                        @   Parent Loop BB5_2 Depth=1
                                        @ =>  This Inner Loop Header: Depth=2
.Ltmp323:
	.loc	32 1466 65 is_stmt 1    @ ./include/Bela.h:1466:65
	vst1.32	{d16, d17}, [r2]!
.Ltmp324:
	.loc	3 129 3 discriminator 1 @ /root/Bela/projects/pedal_chain/render.cpp:129:3
	subs	r3, r3, #4
	bne	.LBB5_30
@ BB#31:                                @ %middle.block
                                        @   in Loop: Header=BB5_2 Depth=1
	mov	r2, r5
	cmp	r0, r5
	beq	.LBB5_34
.LBB5_32:                               @ %scalar.ph.preheader
                                        @   in Loop: Header=BB5_2 Depth=1
.Ltmp325:
	.loc	32 1466 54              @ ./include/Bela.h:1466:54
	mla	r3, r0, r8, r2
	add	r1, r1, r3, lsl #2
.Ltmp326:
.LBB5_33:                               @ %scalar.ph
                                        @   Parent Loop BB5_2 Depth=1
                                        @ =>  This Inner Loop Header: Depth=2
	.loc	3 129 77 discriminator 3 @ /root/Bela/projects/pedal_chain/render.cpp:129:77
	add	r2, r2, #1
.Ltmp327:
	@DEBUG_VALUE: channel <- %R2
	.loc	32 1466 65              @ ./include/Bela.h:1466:65
	vstmia	r1!, {s16}
.Ltmp328:
	.loc	3 129 3 discriminator 1 @ /root/Bela/projects/pedal_chain/render.cpp:129:3
	cmp	r2, r0
	blo	.LBB5_33
.Ltmp329:
.LBB5_34:                               @ %._crit_edge
                                        @   in Loop: Header=BB5_2 Depth=1
	.loc	3 68 2 discriminator 1  @ /root/Bela/projects/pedal_chain/render.cpp:68:2
	add	r7, r7, #4
	.loc	3 68 53 is_stmt 0 discriminator 3 @ /root/Bela/projects/pedal_chain/render.cpp:68:53
	add	r8, r8, #1
.Ltmp330:
	@DEBUG_VALUE: n <- %R8
	.loc	3 68 39 discriminator 1 @ /root/Bela/projects/pedal_chain/render.cpp:68:39
	ldr	r0, [r4, #20]
	.loc	3 68 2 discriminator 1  @ /root/Bela/projects/pedal_chain/render.cpp:68:2
	cmp	r8, r0
	blo	.LBB5_2
.Ltmp331:
.LBB5_35:                               @ %._crit_edge65
	.loc	3 135 1 is_stmt 1       @ /root/Bela/projects/pedal_chain/render.cpp:135:1
	vpop	{d8, d9, d10, d11}
	add	sp, sp, #4
	pop	{r4, r5, r6, r7, r8, r9, r10, r11, pc}
.Ltmp332:
	.p2align	2
@ BB#36:
.LCPI5_0:
	.long	1119748096              @ float 95
.Lfunc_end5:
	.size	render, .Lfunc_end5-render
	.cfi_endproc
	.fnend

	.globl	cleanup
	.p2align	2
	.type	cleanup,%function
cleanup:                                @ @cleanup
.Lfunc_begin6:
	.loc	3 138 0                 @ /root/Bela/projects/pedal_chain/render.cpp:138:0
	.fnstart
	.cfi_startproc
@ BB#0:
	@DEBUG_VALUE: cleanup:context <- %R0
	@DEBUG_VALUE: cleanup:userData <- %R1
	.loc	3 140 1 prologue_end    @ /root/Bela/projects/pedal_chain/render.cpp:140:1
	bx	lr
.Ltmp333:
.Lfunc_end6:
	.size	cleanup, .Lfunc_end6-cleanup
	.cfi_endproc
	.fnend

	.section	.text.startup,"ax",%progbits
	.p2align	2
	.type	_GLOBAL__sub_I_render.ii,%function
_GLOBAL__sub_I_render.ii:               @ @_GLOBAL__sub_I_render.ii
.Lfunc_begin7:
	.file	60 "/root/Bela/projects/pedal_chain/build" "render.cpp"
	.loc	60 0 0                  @ /root/Bela/projects/pedal_chain/build/render.cpp:0:0
	.fnstart
	.cfi_startproc
@ BB#0:
	.save	{r4, r5, r6, r7, r11, lr}
	push	{r4, r5, r6, r7, r11, lr}
.Ltmp343:
	.cfi_def_cfa_offset 24
.Ltmp344:
	.cfi_offset lr, -4
.Ltmp345:
	.cfi_offset r11, -8
.Ltmp346:
	.cfi_offset r7, -12
.Ltmp347:
	.cfi_offset r6, -16
.Ltmp348:
	.cfi_offset r5, -20
.Ltmp349:
	.cfi_offset r4, -24
	.setfp	r11, sp, #16
	add	r11, sp, #16
.Ltmp350:
	.cfi_def_cfa r11, 8
	.pad	#24
	sub	sp, sp, #24
.Ltmp351:
	.loc	35 110 25 prologue_end  @ /usr/bin/../lib/gcc/arm-linux-gnueabihf/6.3.0/../../../../include/c++/6.3.0/bits/basic_string.h:110:25
	movw	r7, :lower16:.L_MergedGlobals
	add	r1, sp, #12
.Ltmp352:
	@DEBUG_VALUE: _M_construct<const char *>:__dnew <- [%R1+0]
	movt	r7, :upper16:.L_MergedGlobals
	add	r0, r7, #32
	add	r5, r7, #24
.Ltmp353:
	@DEBUG_VALUE: _M_data:this <- %R5
	@DEBUG_VALUE: _M_length:this <- %R5
	@DEBUG_VALUE: _M_set_length:this <- %R5
	@DEBUG_VALUE: _M_data:this <- %R5
	@DEBUG_VALUE: _M_capacity:this <- %R5
	@DEBUG_VALUE: _M_data:this <- %R5
	@DEBUG_VALUE: _M_construct<const char *>:this <- %R5
	@DEBUG_VALUE: _M_construct_aux<const char *>:this <- %R5
	@DEBUG_VALUE: _M_construct<const char *>:this <- %R5
	@DEBUG_VALUE: basic_string:this <- %R5
	str	r0, [r7, #24]
	mov	r0, #16
.Ltmp354:
	@DEBUG_VALUE: _M_construct<const char *>:__dnew <- 16
	.loc	57 219 14               @ /usr/bin/../lib/gcc/arm-linux-gnueabihf/6.3.0/../../../../include/c++/6.3.0/bits/basic_string.tcc:219:14
	mov	r2, #0
.Ltmp355:
	.loc	57 215 12               @ /usr/bin/../lib/gcc/arm-linux-gnueabihf/6.3.0/../../../../include/c++/6.3.0/bits/basic_string.tcc:215:12
	str	r0, [sp, #12]
.Ltmp356:
	.loc	57 219 14               @ /usr/bin/../lib/gcc/arm-linux-gnueabihf/6.3.0/../../../../include/c++/6.3.0/bits/basic_string.tcc:219:14
	mov	r0, r5
	mov	r6, #0
	bl	_ZNSt7__cxx1112basic_stringIcSt11char_traitsIcESaIcEE9_M_createERjj
.Ltmp357:
	@DEBUG_VALUE: _M_data:__p <- %R0
	@DEBUG_VALUE: _S_copy_chars:__p <- %R0
	@DEBUG_VALUE: _S_copy:__d <- %R0
	.loc	36 290 33               @ /usr/bin/../lib/gcc/arm-linux-gnueabihf/6.3.0/../../../../include/c++/6.3.0/bits/char_traits.h:290:33
	movw	r2, :lower16:.L.str
.Ltmp358:
	.loc	57 220 18               @ /usr/bin/../lib/gcc/arm-linux-gnueabihf/6.3.0/../../../../include/c++/6.3.0/bits/basic_string.tcc:220:18
	ldr	r1, [sp, #12]
.Ltmp359:
	@DEBUG_VALUE: _M_capacity:__capacity <- %R1
	@DEBUG_VALUE: _M_set_length:__n <- %R1
	@DEBUG_VALUE: _M_length:__length <- %R1
	@DEBUG_VALUE: _M_construct<const char *>:__dnew <- %R1
	.loc	36 290 33               @ /usr/bin/../lib/gcc/arm-linux-gnueabihf/6.3.0/../../../../include/c++/6.3.0/bits/char_traits.h:290:33
	movt	r2, :upper16:.L.str
	vld1.64	{d16, d17}, [r2]
.Ltmp360:
	.loc	3 13 13 discriminator 6 @ /root/Bela/projects/pedal_chain/render.cpp:13:13
	movw	r4, :lower16:__dso_handle
.Ltmp361:
	.loc	35 128 26               @ /usr/bin/../lib/gcc/arm-linux-gnueabihf/6.3.0/../../../../include/c++/6.3.0/bits/basic_string.h:128:26
	str	r0, [r7, #24]
.Ltmp362:
	.loc	3 13 13 discriminator 6 @ /root/Bela/projects/pedal_chain/render.cpp:13:13
	movt	r4, :upper16:__dso_handle
.Ltmp363:
	.loc	35 160 31               @ /usr/bin/../lib/gcc/arm-linux-gnueabihf/6.3.0/../../../../include/c++/6.3.0/bits/basic_string.h:160:31
	str	r1, [r7, #32]
.Ltmp364:
	@DEBUG_VALUE: _S_copy:__n <- 16
	.loc	3 13 13 discriminator 6 @ /root/Bela/projects/pedal_chain/render.cpp:13:13
	mov	r2, r4
.Ltmp365:
	.loc	36 290 33               @ /usr/bin/../lib/gcc/arm-linux-gnueabihf/6.3.0/../../../../include/c++/6.3.0/bits/char_traits.h:290:33
	vst1.8	{d16, d17}, [r0]
.Ltmp366:
	.loc	35 132 26               @ /usr/bin/../lib/gcc/arm-linux-gnueabihf/6.3.0/../../../../include/c++/6.3.0/bits/basic_string.h:132:26
	str	r1, [r7, #28]
.Ltmp367:
	.loc	35 136 28               @ /usr/bin/../lib/gcc/arm-linux-gnueabihf/6.3.0/../../../../include/c++/6.3.0/bits/basic_string.h:136:28
	ldr	r0, [r7, #24]
.Ltmp368:
	.loc	36 243 14               @ /usr/bin/../lib/gcc/arm-linux-gnueabihf/6.3.0/../../../../include/c++/6.3.0/bits/char_traits.h:243:14
	strb	r6, [r0, r1]
.Ltmp369:
	.loc	3 13 13 discriminator 6 @ /root/Bela/projects/pedal_chain/render.cpp:13:13
	movw	r0, :lower16:_ZNSt7__cxx1112basic_stringIcSt11char_traitsIcESaIcEED2Ev
	movt	r0, :upper16:_ZNSt7__cxx1112basic_stringIcSt11char_traitsIcESaIcEED2Ev
	mov	r1, r5
.Ltmp370:
	bl	__cxa_atexit
.Ltmp371:
	.loc	9 87 34                 @ /usr/bin/../lib/gcc/arm-linux-gnueabihf/6.3.0/../../../../include/c++/6.3.0/bits/stl_vector.h:87:34
	movw	r1, :lower16:gPlayer
	vmov.i32	q8, #0x0
	movt	r1, :upper16:gPlayer
.Ltmp372:
	@DEBUG_VALUE: MonoFilePlayer:this <- %R1
	.loc	3 16 16 discriminator 1 @ /root/Bela/projects/pedal_chain/render.cpp:16:16
	mov	r2, r4
.Ltmp373:
	.loc	9 87 34                 @ /usr/bin/../lib/gcc/arm-linux-gnueabihf/6.3.0/../../../../include/c++/6.3.0/bits/stl_vector.h:87:34
	mov	r0, r1
	vst1.32	{d16, d17}, [r0]!
	strh	r6, [r0]
.Ltmp374:
	.loc	3 16 16 discriminator 1 @ /root/Bela/projects/pedal_chain/render.cpp:16:16
	movw	r0, :lower16:_ZN14MonoFilePlayerD2Ev
	movt	r0, :upper16:_ZN14MonoFilePlayerD2Ev
	bl	__cxa_atexit
.Ltmp375:
	.loc	9 87 22                 @ /usr/bin/../lib/gcc/arm-linux-gnueabihf/6.3.0/../../../../include/c++/6.3.0/bits/stl_vector.h:87:22
	movw	r1, :lower16:distort
.Ltmp376:
	.loc	3 17 12 discriminator 1 @ /root/Bela/projects/pedal_chain/render.cpp:17:12
	movw	r0, :lower16:_ZN10DistortionD2Ev
.Ltmp377:
	.loc	9 87 22                 @ /usr/bin/../lib/gcc/arm-linux-gnueabihf/6.3.0/../../../../include/c++/6.3.0/bits/stl_vector.h:87:22
	movt	r1, :upper16:distort
.Ltmp378:
	.loc	3 17 12 discriminator 1 @ /root/Bela/projects/pedal_chain/render.cpp:17:12
	movt	r0, :upper16:_ZN10DistortionD2Ev
	mov	r2, r4
.Ltmp379:
	.loc	9 87 22                 @ /usr/bin/../lib/gcc/arm-linux-gnueabihf/6.3.0/../../../../include/c++/6.3.0/bits/stl_vector.h:87:22
	str	r6, [r1]
	.loc	9 87 34 is_stmt 0       @ /usr/bin/../lib/gcc/arm-linux-gnueabihf/6.3.0/../../../../include/c++/6.3.0/bits/stl_vector.h:87:34
	str	r6, [r1, #4]
	.loc	9 87 47                 @ /usr/bin/../lib/gcc/arm-linux-gnueabihf/6.3.0/../../../../include/c++/6.3.0/bits/stl_vector.h:87:47
	str	r6, [r1, #8]
.Ltmp380:
	.loc	3 17 12 is_stmt 1 discriminator 1 @ /root/Bela/projects/pedal_chain/render.cpp:17:12
	bl	__cxa_atexit
.Ltmp381:
	.loc	3 18 15                 @ /root/Bela/projects/pedal_chain/render.cpp:18:15
	add	r5, r7, #48
.Ltmp382:
	mov	r0, r5
	bl	_ZN13ReverberationC1Ev
	.loc	3 18 15 is_stmt 0 discriminator 1 @ /root/Bela/projects/pedal_chain/render.cpp:18:15
	movw	r0, :lower16:_ZN13ReverberationD2Ev
	mov	r1, r5
	movt	r0, :upper16:_ZN13ReverberationD2Ev
	mov	r2, r4
	bl	__cxa_atexit
.Ltmp383:
	.loc	9 91 25 is_stmt 1       @ /usr/bin/../lib/gcc/arm-linux-gnueabihf/6.3.0/../../../../include/c++/6.3.0/bits/stl_vector.h:91:25
	str	r6, [sp, #12]
	.loc	9 91 37 is_stmt 0       @ /usr/bin/../lib/gcc/arm-linux-gnueabihf/6.3.0/../../../../include/c++/6.3.0/bits/stl_vector.h:91:37
	str	r6, [sp, #16]
	.loc	9 91 50                 @ /usr/bin/../lib/gcc/arm-linux-gnueabihf/6.3.0/../../../../include/c++/6.3.0/bits/stl_vector.h:91:50
	str	r6, [sp, #20]
.Ltmp384:
	@DEBUG_VALUE: allocate:__n <- 2
	@DEBUG_VALUE: allocate:__n <- 2
	@DEBUG_VALUE: _M_allocate:__n <- 2
	@DEBUG_VALUE: _M_range_initialize<const float *>:__n <- 2
	.loc	5 104 27 is_stmt 1      @ /usr/bin/../lib/gcc/arm-linux-gnueabihf/6.3.0/../../../../include/c++/6.3.0/ext/new_allocator.h:104:27
.Ltmp334:
	mov	r0, #8
	bl	_Znwj
.Ltmp335:
.Ltmp385:
	@DEBUG_VALUE: _S_copy:__s <- %R2
	@DEBUG_VALUE: Distortion:this <- %R1
@ BB#1:
	@DEBUG_VALUE: Distortion:this <- %R1
	@DEBUG_VALUE: _S_copy:__s <- %R2
	.loc	9 1286 61               @ /usr/bin/../lib/gcc/arm-linux-gnueabihf/6.3.0/../../../../include/c++/6.3.0/bits/stl_vector.h:1286:61
	add	r1, r0, #8
.Ltmp386:
	.file	61 "/usr/bin/../lib/gcc/arm-linux-gnueabihf/6.3.0/../../../../include/c++/6.3.0/bits" "stl_algobase.h"
	.loc	61 368 6                @ /usr/bin/../lib/gcc/arm-linux-gnueabihf/6.3.0/../../../../include/c++/6.3.0/bits/stl_algobase.h:368:6
	mov	r2, #1065353216
.Ltmp387:
	@DEBUG_VALUE: __copy_m<float>:_Num <- 2
	@DEBUG_VALUE: __copy_move_a<false, const float *, float *>:__simple <- 1
	@DEBUG_VALUE: uninitialized_copy<const float *, float *>:__assignable <- 1
	.loc	9 1285 27               @ /usr/bin/../lib/gcc/arm-linux-gnueabihf/6.3.0/../../../../include/c++/6.3.0/bits/stl_vector.h:1285:27
	str	r0, [sp, #12]
	.loc	9 1286 36               @ /usr/bin/../lib/gcc/arm-linux-gnueabihf/6.3.0/../../../../include/c++/6.3.0/bits/stl_vector.h:1286:36
	str	r1, [sp, #20]
.Ltmp388:
	.loc	61 368 6                @ /usr/bin/../lib/gcc/arm-linux-gnueabihf/6.3.0/../../../../include/c++/6.3.0/bits/stl_algobase.h:368:6
	str	r2, [r0]
.Ltmp389:
	.loc	9 91 25                 @ /usr/bin/../lib/gcc/arm-linux-gnueabihf/6.3.0/../../../../include/c++/6.3.0/bits/stl_vector.h:91:25
	str	r6, [sp]
	.loc	9 91 37 is_stmt 0       @ /usr/bin/../lib/gcc/arm-linux-gnueabihf/6.3.0/../../../../include/c++/6.3.0/bits/stl_vector.h:91:37
	str	r6, [sp, #4]
.Ltmp390:
	.loc	61 368 6 is_stmt 1      @ /usr/bin/../lib/gcc/arm-linux-gnueabihf/6.3.0/../../../../include/c++/6.3.0/bits/stl_algobase.h:368:6
	str	r2, [r0, #4]
.Ltmp391:
	.loc	9 1287 28               @ /usr/bin/../lib/gcc/arm-linux-gnueabihf/6.3.0/../../../../include/c++/6.3.0/bits/stl_vector.h:1287:28
	str	r1, [sp, #16]
.Ltmp392:
	@DEBUG_VALUE: _M_deallocate:__p <- %R6
	.loc	9 91 50                 @ /usr/bin/../lib/gcc/arm-linux-gnueabihf/6.3.0/../../../../include/c++/6.3.0/bits/stl_vector.h:91:50
	str	r6, [sp, #8]
.Ltmp393:
	.loc	5 104 27                @ /usr/bin/../lib/gcc/arm-linux-gnueabihf/6.3.0/../../../../include/c++/6.3.0/ext/new_allocator.h:104:27
.Ltmp337:
	mov	r0, #8
	bl	_Znwj
.Ltmp338:
.Ltmp394:
	@DEBUG_VALUE: allocate:__n <- 2
	@DEBUG_VALUE: allocate:__n <- 2
	@DEBUG_VALUE: _M_allocate:__n <- 2
	@DEBUG_VALUE: _M_range_initialize<const float *>:__n <- 2
@ BB#2:
	@DEBUG_VALUE: _M_deallocate:__p <- %R6
	.loc	61 368 6                @ /usr/bin/../lib/gcc/arm-linux-gnueabihf/6.3.0/../../../../include/c++/6.3.0/bits/stl_algobase.h:368:6
	movw	r7, #0
	movw	r6, #0
.Ltmp395:
	add	r1, sp, #12
	movt	r7, #16512
	movt	r6, #16448
.Ltmp396:
	.loc	9 1285 27               @ /usr/bin/../lib/gcc/arm-linux-gnueabihf/6.3.0/../../../../include/c++/6.3.0/bits/stl_vector.h:1285:27
	str	r0, [sp]
	.loc	9 1286 61               @ /usr/bin/../lib/gcc/arm-linux-gnueabihf/6.3.0/../../../../include/c++/6.3.0/bits/stl_vector.h:1286:61
	add	r3, r0, #8
	.loc	9 1286 36 is_stmt 0     @ /usr/bin/../lib/gcc/arm-linux-gnueabihf/6.3.0/../../../../include/c++/6.3.0/bits/stl_vector.h:1286:36
	str	r3, [sp, #8]
.Ltmp397:
	@DEBUG_VALUE: __copy_m<float>:_Num <- 2
	@DEBUG_VALUE: __copy_move_a<false, const float *, float *>:__simple <- 1
	@DEBUG_VALUE: uninitialized_copy<const float *, float *>:__assignable <- 1
	.loc	61 368 6 is_stmt 1      @ /usr/bin/../lib/gcc/arm-linux-gnueabihf/6.3.0/../../../../include/c++/6.3.0/bits/stl_algobase.h:368:6
	stm	r0, {r6, r7}
	mov	r2, sp
.Ltmp398:
	.loc	9 1287 28               @ /usr/bin/../lib/gcc/arm-linux-gnueabihf/6.3.0/../../../../include/c++/6.3.0/bits/stl_vector.h:1287:28
	str	r3, [sp, #4]
.Ltmp399:
	.loc	3 19 12 discriminator 2 @ /root/Bela/projects/pedal_chain/render.cpp:19:12
.Ltmp340:
	movw	r4, :lower16:.L_MergedGlobals.5
	vmov.f32	d0, #1.000000e+01
	movt	r4, :upper16:.L_MergedGlobals.5
	mov	r0, r4
	bl	_ZN10isr_simpleC1EfSt6vectorIfSaIfEES2_
.Ltmp341:
@ BB#3:
.Ltmp400:
	.loc	9 160 37                @ /usr/bin/../lib/gcc/arm-linux-gnueabihf/6.3.0/../../../../include/c++/6.3.0/bits/stl_vector.h:160:37
	ldr	r0, [sp]
.Ltmp401:
	@DEBUG_VALUE: _M_deallocate:__p <- %R0
	@DEBUG_VALUE: deallocate:__p <- %R0
	@DEBUG_VALUE: deallocate:__p <- %R0
	.loc	9 177 6                 @ /usr/bin/../lib/gcc/arm-linux-gnueabihf/6.3.0/../../../../include/c++/6.3.0/bits/stl_vector.h:177:6
	cmp	r0, #0
	beq	.LBB7_5
.Ltmp402:
@ BB#4:
	@DEBUG_VALUE: deallocate:__p <- %R0
	@DEBUG_VALUE: deallocate:__p <- %R0
	@DEBUG_VALUE: _M_deallocate:__p <- %R0
	.loc	5 110 9                 @ /usr/bin/../lib/gcc/arm-linux-gnueabihf/6.3.0/../../../../include/c++/6.3.0/ext/new_allocator.h:110:9
	bl	_ZdlPv
.Ltmp403:
.LBB7_5:                                @ %_ZNSt6vectorIfSaIfEED2Ev.exit12.i
	.loc	9 160 37                @ /usr/bin/../lib/gcc/arm-linux-gnueabihf/6.3.0/../../../../include/c++/6.3.0/bits/stl_vector.h:160:37
	ldr	r0, [sp, #12]
.Ltmp404:
	@DEBUG_VALUE: _M_deallocate:__p <- %R0
	@DEBUG_VALUE: deallocate:__p <- %R0
	@DEBUG_VALUE: deallocate:__p <- %R0
	.loc	9 177 6                 @ /usr/bin/../lib/gcc/arm-linux-gnueabihf/6.3.0/../../../../include/c++/6.3.0/bits/stl_vector.h:177:6
	cmp	r0, #0
	beq	.LBB7_7
.Ltmp405:
@ BB#6:
	@DEBUG_VALUE: deallocate:__p <- %R0
	@DEBUG_VALUE: deallocate:__p <- %R0
	@DEBUG_VALUE: _M_deallocate:__p <- %R0
	.loc	5 110 9                 @ /usr/bin/../lib/gcc/arm-linux-gnueabihf/6.3.0/../../../../include/c++/6.3.0/ext/new_allocator.h:110:9
	bl	_ZdlPv
.Ltmp406:
.LBB7_7:                                @ %__cxx_global_var_init.4.exit
	.loc	3 19 12 discriminator 17 @ /root/Bela/projects/pedal_chain/render.cpp:19:12
	movw	r5, :lower16:__dso_handle
	movw	r0, :lower16:_ZN10isr_simpleD2Ev
	movt	r5, :upper16:__dso_handle
	movt	r0, :upper16:_ZN10isr_simpleD2Ev
	mov	r1, r4
	mov	r2, r5
	bl	__cxa_atexit
.Ltmp407:
	.loc	3 34 5                  @ /root/Bela/projects/pedal_chain/render.cpp:34:5
	movw	r6, :lower16:gGui
	movt	r6, :upper16:gGui
	mov	r0, r6
	bl	_ZN3GuiC1Ev
	.loc	3 34 5 is_stmt 0 discriminator 1 @ /root/Bela/projects/pedal_chain/render.cpp:34:5
	movw	r0, :lower16:_ZN3GuiD1Ev
	mov	r1, r6
	movt	r0, :upper16:_ZN3GuiD1Ev
	mov	r2, r5
	bl	__cxa_atexit
.Ltmp408:
	.loc	3 35 15 is_stmt 1       @ /root/Bela/projects/pedal_chain/render.cpp:35:15
	add	r4, r4, #48
	mov	r0, r4
	bl	_ZN13GuiControllerC1Ev
	.loc	3 35 15 is_stmt 0 discriminator 1 @ /root/Bela/projects/pedal_chain/render.cpp:35:15
	movw	r0, :lower16:_ZN13GuiControllerD1Ev
	mov	r1, r4
	movt	r0, :upper16:_ZN13GuiControllerD1Ev
	mov	r2, r5
	bl	__cxa_atexit
.Ltmp409:
	.loc	3 36 7 is_stmt 1        @ /root/Bela/projects/pedal_chain/render.cpp:36:7
	movw	r4, :lower16:gScope
	movt	r4, :upper16:gScope
	mov	r0, r4
	bl	_ZN5ScopeC1Ev
	.loc	3 36 7 is_stmt 0 discriminator 1 @ /root/Bela/projects/pedal_chain/render.cpp:36:7
	movw	r0, :lower16:_ZN5ScopeD1Ev
	mov	r1, r4
	movt	r0, :upper16:_ZN5ScopeD1Ev
	mov	r2, r5
	bl	__cxa_atexit
	sub	sp, r11, #16
	pop	{r4, r5, r6, r7, r11, pc}
.Ltmp410:
.LBB7_8:
.Ltmp342:
	mov	r4, r0
.Ltmp411:
	.loc	9 160 37 is_stmt 1      @ /usr/bin/../lib/gcc/arm-linux-gnueabihf/6.3.0/../../../../include/c++/6.3.0/bits/stl_vector.h:160:37
	ldr	r0, [sp]
.Ltmp412:
	@DEBUG_VALUE: _M_deallocate:__p <- %R0
	@DEBUG_VALUE: deallocate:__p <- %R0
	@DEBUG_VALUE: deallocate:__p <- %R0
	.loc	9 177 6                 @ /usr/bin/../lib/gcc/arm-linux-gnueabihf/6.3.0/../../../../include/c++/6.3.0/bits/stl_vector.h:177:6
	cmp	r0, #0
	beq	.LBB7_11
.Ltmp413:
@ BB#9:
	@DEBUG_VALUE: deallocate:__p <- %R0
	@DEBUG_VALUE: deallocate:__p <- %R0
	@DEBUG_VALUE: _M_deallocate:__p <- %R0
	.loc	5 110 9                 @ /usr/bin/../lib/gcc/arm-linux-gnueabihf/6.3.0/../../../../include/c++/6.3.0/ext/new_allocator.h:110:9
	bl	_ZdlPv
.Ltmp414:
	b	.LBB7_11
.Ltmp415:
.LBB7_10:                               @ %.body8.i
	@DEBUG_VALUE: _M_deallocate:__p <- %R6
.Ltmp339:
	mov	r4, r0
.Ltmp416:
.LBB7_11:                               @ %_ZNSt6vectorIfSaIfEED2Ev.exit16.i
	.loc	9 160 37                @ /usr/bin/../lib/gcc/arm-linux-gnueabihf/6.3.0/../../../../include/c++/6.3.0/bits/stl_vector.h:160:37
	ldr	r0, [sp, #12]
.Ltmp417:
	@DEBUG_VALUE: _M_deallocate:__p <- %R0
	@DEBUG_VALUE: deallocate:__p <- %R0
	@DEBUG_VALUE: deallocate:__p <- %R0
	.loc	9 177 6                 @ /usr/bin/../lib/gcc/arm-linux-gnueabihf/6.3.0/../../../../include/c++/6.3.0/bits/stl_vector.h:177:6
	cmp	r0, #0
	beq	.LBB7_13
.Ltmp418:
@ BB#12:
	@DEBUG_VALUE: deallocate:__p <- %R0
	@DEBUG_VALUE: deallocate:__p <- %R0
	@DEBUG_VALUE: _M_deallocate:__p <- %R0
	.loc	5 110 9                 @ /usr/bin/../lib/gcc/arm-linux-gnueabihf/6.3.0/../../../../include/c++/6.3.0/ext/new_allocator.h:110:9
	bl	_ZdlPv
.Ltmp419:
.LBB7_13:                               @ %_ZNSt6vectorIfSaIfEED2Ev.exit.i
	mov	r0, r4
	mov	lr, pc
	b	_Unwind_Resume
.LBB7_14:                               @ %.body.i
.Ltmp420:
	@DEBUG_VALUE: Distortion:this <- %R1
	@DEBUG_VALUE: _S_copy:__s <- %R2
.Ltmp336:
	mov	lr, pc
	b	_Unwind_Resume
.Ltmp421:
.Lfunc_end7:
	.size	_GLOBAL__sub_I_render.ii, .Lfunc_end7-_GLOBAL__sub_I_render.ii
	.cfi_endproc
	.file	62 "/usr/bin/../lib/gcc/arm-linux-gnueabihf/6.3.0/../../../../include/c++/6.3.0/bits" "stl_uninitialized.h"
	.globl	__gxx_personality_v0
	.personality __gxx_personality_v0
	.handlerdata
	.p2align	2
GCC_except_table7:
.Lexception1:
	.byte	255                     @ @LPStart Encoding = omit
	.byte	0                       @ @TType Encoding = absptr
	.asciz	"\303\200"              @ @TType base offset
	.byte	3                       @ Call site Encoding = udata4
	.byte	65                      @ Call site table length
	.long	.Lfunc_begin7-.Lfunc_begin7 @ >> Call Site 1 <<
	.long	.Ltmp334-.Lfunc_begin7  @   Call between .Lfunc_begin7 and .Ltmp334
	.long	0                       @     has no landing pad
	.byte	0                       @   On action: cleanup
	.long	.Ltmp334-.Lfunc_begin7  @ >> Call Site 2 <<
	.long	.Ltmp335-.Ltmp334       @   Call between .Ltmp334 and .Ltmp335
	.long	.Ltmp336-.Lfunc_begin7  @     jumps to .Ltmp336
	.byte	0                       @   On action: cleanup
	.long	.Ltmp337-.Lfunc_begin7  @ >> Call Site 3 <<
	.long	.Ltmp338-.Ltmp337       @   Call between .Ltmp337 and .Ltmp338
	.long	.Ltmp339-.Lfunc_begin7  @     jumps to .Ltmp339
	.byte	0                       @   On action: cleanup
	.long	.Ltmp340-.Lfunc_begin7  @ >> Call Site 4 <<
	.long	.Ltmp341-.Ltmp340       @   Call between .Ltmp340 and .Ltmp341
	.long	.Ltmp342-.Lfunc_begin7  @     jumps to .Ltmp342
	.byte	0                       @   On action: cleanup
	.long	.Ltmp341-.Lfunc_begin7  @ >> Call Site 5 <<
	.long	.Lfunc_end7-.Ltmp341    @   Call between .Ltmp341 and .Lfunc_end7
	.long	0                       @     has no landing pad
	.byte	0                       @   On action: cleanup
	.p2align	2
	.fnend

	.type	.L.str,%object          @ @.str
	.section	.rodata.str1.8,"aMS",%progbits,1
	.p2align	3
.L.str:
	.asciz	"clean_guitar.wav"
	.size	.L.str, 17

	.type	gPlayer,%object         @ @gPlayer
	.bss
	.globl	gPlayer
	.p2align	2
gPlayer:
	.zero	20
	.size	gPlayer, 20

	.type	distort,%object         @ @distort
	.globl	distort
	.p2align	2
distort:
	.zero	28
	.size	distort, 28

	.type	gGui,%object            @ @gGui
	.globl	gGui
	.p2align	2
gGui:
	.zero	136
	.size	gGui, 136

	.type	gScope,%object          @ @gScope
	.globl	gScope
	.p2align	2
gScope:
	.zero	212
	.size	gScope, 212

	.type	.L.str.9,%object        @ @.str.9
	.section	.rodata.str1.1,"aMS",%progbits,1
.L.str.9:
	.asciz	"Error loading audio file '%s'\n"
	.size	.L.str.9, 31

	.type	.L.str.10,%object       @ @.str.10
.L.str.10:
	.asciz	"Loaded the audio file '%s' with %d frames (%.1f seconds)\n"
	.size	.L.str.10, 58

	.type	.L.str.11,%object       @ @.str.11
.L.str.11:
	.asciz	"gui"
	.size	.L.str.11, 4

	.type	.L.str.13,%object       @ @.str.13
.L.str.13:
	.asciz	"reverb"
	.size	.L.str.13, 7

	.type	.L.str.14,%object       @ @.str.14
	.section	.rodata.str1.8,"aMS",%progbits,1
	.p2align	3
.L.str.14:
	.asciz	"reverb amount"
	.size	.L.str.14, 14

	.type	.L.str.15,%object       @ @.str.15
	.p2align	3
.L.str.15:
	.asciz	"distortion"
	.size	.L.str.15, 11

	.type	.L.str.16,%object       @ @.str.16
	.p2align	3
.L.str.16:
	.asciz	"distortion amount"
	.size	.L.str.16, 18

	.section	.init_array,"aw",%init_array
	.p2align	2
	.long	_GLOBAL__sub_I_render.ii(target1)
	.type	.L_MergedGlobals,%object @ @_MergedGlobals
	.data
	.p2align	4
.L_MergedGlobals:
	.byte	0                       @ 0x0
	.byte	1                       @ 0x1
	.byte	0                       @ 0x0
	.zero	1
	.long	1                       @ 0x1
	.long	1                       @ 0x1
	.long	0                       @ 0x0
	.long	0                       @ float 0
	.long	0                       @ float 0
	.zero	24
	.zero	40
	.size	.L_MergedGlobals, 88

	.type	.L_MergedGlobals.5,%object @ @_MergedGlobals.5
	.local	.L_MergedGlobals.5
	.comm	.L_MergedGlobals.5,112,16