	.text
	.syntax unified
	.eabi_attribute	67, "2.09"	@ Tag_conformance
	.cpu	cortex-a8
	.eabi_attribute	6, 10	@ Tag_CPU_arch
	.eabi_attribute	7, 65	@ Tag_CPU_arch_profile
	.eabi_attribute	8, 1	@ Tag_ARM_ISA_use
	.eabi_attribute	9, 2	@ Tag_THUMB_ISA_use
	.fpu	neon
	.eabi_attribute	17, 1	@ Tag_ABI_PCS_GOT_use
	.eabi_attribute	20, 2	@ Tag_ABI_FP_denormal
	.eabi_attribute	23, 1	@ Tag_ABI_FP_number_model
	.eabi_attribute	34, 1	@ Tag_CPU_unaligned_access
	.eabi_attribute	24, 1	@ Tag_ABI_align_needed
	.eabi_attribute	25, 1	@ Tag_ABI_align_preserved
	.eabi_attribute	28, 1	@ Tag_ABI_VFP_args
	.eabi_attribute	38, 1	@ Tag_ABI_FP_16bit_format
	.eabi_attribute	18, 4	@ Tag_ABI_PCS_wchar_t
	.eabi_attribute	26, 2	@ Tag_ABI_enum_size
	.eabi_attribute	14, 0	@ Tag_ABI_PCS_R9_use
	.eabi_attribute	68, 1	@ Tag_Virtualization_use
	.file	"/root/Bela/projects/pedal_chain/build/Reverberation.bc"
	.file	1 "/usr/bin/../lib/gcc/arm-linux-gnueabihf/6.3.0/../../../../include/arm-linux-gnueabihf/c++/6.3.0/bits" "c++config.h"
	.file	2 "/usr/bin/../lib/gcc/arm-linux-gnueabihf/6.3.0/../../../../include/c++/6.3.0/ext" "concurrence.h"
	.file	3 "/usr/bin/../lib/gcc/arm-linux-gnueabihf/6.3.0/../../../../include/c++/6.3.0/bits" "cpp_type_traits.h"
	.file	4 "/usr/bin/../lib/gcc/arm-linux-gnueabihf/6.3.0/../../../../include/c++/6.3.0/bits" "alloc_traits.h"
	.file	5 "/usr/bin/../lib/gcc/arm-linux-gnueabihf/6.3.0/../../../../include/c++/6.3.0/ext" "new_allocator.h"
	.file	6 "/usr/bin/../lib/gcc/arm-linux-gnueabihf/6.3.0/../../../../include/arm-linux-gnueabihf/c++/6.3.0/bits" "c++allocator.h"
	.file	7 "/usr/bin/../lib/gcc/arm-linux-gnueabihf/6.3.0/../../../../include/c++/6.3.0/bits" "allocator.h"
	.file	8 "/usr/bin/../lib/gcc/arm-linux-gnueabihf/6.3.0/../../../../include/c++/6.3.0/ext" "alloc_traits.h"
	.file	9 "/usr/bin/../lib/gcc/arm-linux-gnueabihf/6.3.0/../../../../include/c++/6.3.0/bits" "stl_vector.h"
	.file	10 "/usr/bin/../lib/gcc/arm-linux-gnueabihf/6.3.0/../../../../include/c++/6.3.0/bits" "stl_iterator.h"
	.file	11 "/usr/bin/../lib/gcc/arm-linux-gnueabihf/6.3.0/../../../../include/c++/6.3.0" "type_traits"
	.file	12 "/usr/bin/../lib/gcc/arm-linux-gnueabihf/6.3.0/../../../../include/c++/6.3.0/bits" "stl_iterator_base_types.h"
	.file	13 "/usr/include/arm-linux-gnueabihf/bits" "math-finite.h"
	.file	14 "/usr/include/arm-linux-gnueabihf/bits" "mathcalls.h"
	.file	15 "/usr/include/arm-linux-gnueabihf/bits" "mathdef.h"
	.file	16 "/usr/bin/../lib/gcc/arm-linux-gnueabihf/6.3.0/../../../../include/c++/6.3.0/debug" "debug.h"
	.file	17 "/usr/include" "wchar.h"
	.file	18 "/usr/lib/llvm-3.9/bin/../lib/clang/3.9.1/include" "stddef.h"
	.file	19 "/usr/include" "libio.h"
	.file	20 "/usr/include/arm-linux-gnueabihf/bits" "types.h"
	.file	21 "/usr/include" "stdio.h"
	.file	22 "/usr/lib/llvm-3.9/bin/../lib/clang/3.9.1/include" "stdarg.h"
	.file	23 "/usr/include" "stdint.h"
	.file	24 "/usr/bin/../lib/gcc/arm-linux-gnueabihf/6.3.0/../../../../include/c++/6.3.0/bits" "exception_ptr.h"
	.file	25 "/usr/include" "locale.h"
	.file	26 "/usr/include" "ctype.h"
	.file	27 "/usr/include" "stdlib.h"
	.file	28 "/usr/include/arm-linux-gnueabihf/bits" "stdlib-float.h"
	.file	29 "/usr/include/arm-linux-gnueabihf/bits" "stdlib-bsearch.h"
	.file	30 "/usr/bin/../lib/gcc/arm-linux-gnueabihf/6.3.0/../../../../include/c++/6.3.0" "cstdlib"
	.file	31 "/usr/include" "_G_config.h"
	.file	32 "/usr/include/arm-linux-gnueabihf/bits" "stdio.h"
	.file	33 "/usr/include" "time.h"
	.globl	_ZN13ReverberationC2Ev
	.p2align	2
	.type	_ZN13ReverberationC2Ev,%function
_ZN13ReverberationC2Ev:                 @ @_ZN13ReverberationC2Ev
.Lfunc_begin0:
	.file	34 "/root/Bela/projects/pedal_chain" "Reverberation.cpp"
	.loc	34 18 0                 @ /root/Bela/projects/pedal_chain/Reverberation.cpp:18:0
	.fnstart
	.cfi_startproc
@ BB#0:
	.save	{r4, r5, r6, r10, r11, lr}
	push	{r4, r5, r6, r10, r11, lr}
.Ltmp5:
	.cfi_def_cfa_offset 24
.Ltmp6:
	.cfi_offset lr, -4
.Ltmp7:
	.cfi_offset r11, -8
.Ltmp8:
	.cfi_offset r10, -12
.Ltmp9:
	.cfi_offset r6, -16
.Ltmp10:
	.cfi_offset r5, -20
.Ltmp11:
	.cfi_offset r4, -24
	.setfp	r11, sp, #16
	add	r11, sp, #16
.Ltmp12:
	.cfi_def_cfa r11, 8
	@DEBUG_VALUE: Reverberation:this <- %R0
.Ltmp13:
	.loc	9 87 34 prologue_end    @ /usr/bin/../lib/gcc/arm-linux-gnueabihf/6.3.0/../../../../include/c++/6.3.0/bits/stl_vector.h:87:34
	vmov.i32	q8, #0x0
	mov	r4, r0
.Ltmp14:
	@DEBUG_VALUE: resize:__new_size <- 22050
	@DEBUG_VALUE: Reverberation:this <- %R4
	mov	r0, #0
.Ltmp15:
	.loc	34 18 16                @ /root/Bela/projects/pedal_chain/Reverberation.cpp:18:16
	add	r5, r4, #12
.Ltmp16:
	@DEBUG_VALUE: vector:this <- %R5
	@DEBUG_VALUE: vector:this <- %R4
	@DEBUG_VALUE: resize:this <- %R4
	@DEBUG_VALUE: size:this <- %R4
	@DEBUG_VALUE: size:this <- %R4
	@DEBUG_VALUE: ~vector:this <- %R4
	@DEBUG_VALUE: resize:this <- %R5
	@DEBUG_VALUE: size:this <- %R5
	@DEBUG_VALUE: size:this <- %R5
	@DEBUG_VALUE: _M_erase_at_end:this <- %R5
	@DEBUG_VALUE: ~vector:this <- %R5
	.loc	9 87 34                 @ /usr/bin/../lib/gcc/arm-linux-gnueabihf/6.3.0/../../../../include/c++/6.3.0/bits/stl_vector.h:87:34
	str	r0, [r4, #32]
	str	r0, [r4, #36]
	mov	r0, r4
	vst1.32	{d16, d17}, [r0]!
	vst1.32	{d16, d17}, [r0]
.Ltmp17:
	.loc	9 677 4 discriminator 1 @ /usr/bin/../lib/gcc/arm-linux-gnueabihf/6.3.0/../../../../include/c++/6.3.0/bits/stl_vector.h:677:4
.Ltmp0:
	mov	r0, r4
	movw	r1, #22050
	bl	_ZNSt6vectorIfSaIfEE17_M_default_appendEj
.Ltmp1:
.Ltmp18:
@ BB#1:                                 @ %_ZNSt6vectorIfSaIfEE6resizeEj.exit
	@DEBUG_VALUE: ~vector:this <- %R5
	@DEBUG_VALUE: _M_erase_at_end:this <- %R5
	@DEBUG_VALUE: size:this <- %R5
	@DEBUG_VALUE: size:this <- %R5
	@DEBUG_VALUE: resize:this <- %R5
	@DEBUG_VALUE: ~vector:this <- %R4
	@DEBUG_VALUE: size:this <- %R4
	@DEBUG_VALUE: size:this <- %R4
	@DEBUG_VALUE: resize:this <- %R4
	@DEBUG_VALUE: vector:this <- %R4
	@DEBUG_VALUE: vector:this <- %R5
	@DEBUG_VALUE: Reverberation:this <- %R4
	@DEBUG_VALUE: resize:__new_size <- 22050
	.loc	9 656 66                @ /usr/bin/../lib/gcc/arm-linux-gnueabihf/6.3.0/../../../../include/c++/6.3.0/bits/stl_vector.h:656:66
	ldr	r0, [r4, #12]
.Ltmp19:
	.loc	9 676 6                 @ /usr/bin/../lib/gcc/arm-linux-gnueabihf/6.3.0/../../../../include/c++/6.3.0/bits/stl_vector.h:676:6
	movw	r2, #22049
.Ltmp20:
	.loc	9 656 40                @ /usr/bin/../lib/gcc/arm-linux-gnueabihf/6.3.0/../../../../include/c++/6.3.0/bits/stl_vector.h:656:40
	ldr	r1, [r4, #16]
	.loc	9 656 50 is_stmt 0      @ /usr/bin/../lib/gcc/arm-linux-gnueabihf/6.3.0/../../../../include/c++/6.3.0/bits/stl_vector.h:656:50
	sub	r1, r1, r0
	asr	r1, r1, #2
.Ltmp21:
	.loc	9 676 6 is_stmt 1       @ /usr/bin/../lib/gcc/arm-linux-gnueabihf/6.3.0/../../../../include/c++/6.3.0/bits/stl_vector.h:676:6
	cmp	r1, r2
	bhi	.LBB0_3
.Ltmp22:
@ BB#2:
	@DEBUG_VALUE: ~vector:this <- %R5
	@DEBUG_VALUE: _M_erase_at_end:this <- %R5
	@DEBUG_VALUE: size:this <- %R5
	@DEBUG_VALUE: size:this <- %R5
	@DEBUG_VALUE: resize:this <- %R5
	@DEBUG_VALUE: ~vector:this <- %R4
	@DEBUG_VALUE: size:this <- %R4
	@DEBUG_VALUE: size:this <- %R4
	@DEBUG_VALUE: resize:this <- %R4
	@DEBUG_VALUE: vector:this <- %R4
	@DEBUG_VALUE: vector:this <- %R5
	@DEBUG_VALUE: Reverberation:this <- %R4
	.loc	9 677 33                @ /usr/bin/../lib/gcc/arm-linux-gnueabihf/6.3.0/../../../../include/c++/6.3.0/bits/stl_vector.h:677:33
	movw	r0, #22050
	sub	r1, r0, r1
	.loc	9 677 4 is_stmt 0 discriminator 1 @ /usr/bin/../lib/gcc/arm-linux-gnueabihf/6.3.0/../../../../include/c++/6.3.0/bits/stl_vector.h:677:4
.Ltmp2:
	mov	r0, r5
	bl	_ZNSt6vectorIfSaIfEE17_M_default_appendEj
.Ltmp3:
	b	.LBB0_4
.Ltmp23:
.LBB0_3:
	@DEBUG_VALUE: ~vector:this <- %R5
	@DEBUG_VALUE: _M_erase_at_end:this <- %R5
	@DEBUG_VALUE: size:this <- %R5
	@DEBUG_VALUE: size:this <- %R5
	@DEBUG_VALUE: resize:this <- %R5
	@DEBUG_VALUE: ~vector:this <- %R4
	@DEBUG_VALUE: size:this <- %R4
	@DEBUG_VALUE: size:this <- %R4
	@DEBUG_VALUE: resize:this <- %R4
	@DEBUG_VALUE: vector:this <- %R4
	@DEBUG_VALUE: vector:this <- %R5
	@DEBUG_VALUE: Reverberation:this <- %R4
	.loc	9 678 22 is_stmt 1      @ /usr/bin/../lib/gcc/arm-linux-gnueabihf/6.3.0/../../../../include/c++/6.3.0/bits/stl_vector.h:678:22
	movw	r2, #22050
.Ltmp24:
	.loc	9 678 11 is_stmt 0      @ /usr/bin/../lib/gcc/arm-linux-gnueabihf/6.3.0/../../../../include/c++/6.3.0/bits/stl_vector.h:678:11
	cmp	r1, r2
.Ltmp25:
	.loc	9 679 43 is_stmt 1      @ /usr/bin/../lib/gcc/arm-linux-gnueabihf/6.3.0/../../../../include/c++/6.3.0/bits/stl_vector.h:679:43
	addne	r0, r0, #136
	addne	r0, r0, #88064
.Ltmp26:
	@DEBUG_VALUE: _M_erase_at_end:__pos <- %R0
	.loc	9 1437 26               @ /usr/bin/../lib/gcc/arm-linux-gnueabihf/6.3.0/../../../../include/c++/6.3.0/bits/stl_vector.h:1437:26
	strne	r0, [r4, #16]
.Ltmp27:
.LBB0_4:                                @ %_ZNSt6vectorIfSaIfEE6resizeEj.exit4
	@DEBUG_VALUE: ~vector:this <- %R5
	@DEBUG_VALUE: _M_erase_at_end:this <- %R5
	@DEBUG_VALUE: size:this <- %R5
	@DEBUG_VALUE: size:this <- %R5
	@DEBUG_VALUE: resize:this <- %R5
	@DEBUG_VALUE: ~vector:this <- %R4
	@DEBUG_VALUE: size:this <- %R4
	@DEBUG_VALUE: size:this <- %R4
	@DEBUG_VALUE: resize:this <- %R4
	@DEBUG_VALUE: vector:this <- %R4
	@DEBUG_VALUE: vector:this <- %R5
	@DEBUG_VALUE: Reverberation:this <- %R4
	.loc	34 21 1                 @ /root/Bela/projects/pedal_chain/Reverberation.cpp:21:1
	mov	r0, r4
	pop	{r4, r5, r6, r10, r11, pc}
.Ltmp28:
.LBB0_5:
	@DEBUG_VALUE: ~vector:this <- %R5
	@DEBUG_VALUE: _M_erase_at_end:this <- %R5
	@DEBUG_VALUE: size:this <- %R5
	@DEBUG_VALUE: size:this <- %R5
	@DEBUG_VALUE: resize:this <- %R5
	@DEBUG_VALUE: ~vector:this <- %R4
	@DEBUG_VALUE: size:this <- %R4
	@DEBUG_VALUE: size:this <- %R4
	@DEBUG_VALUE: resize:this <- %R4
	@DEBUG_VALUE: vector:this <- %R4
	@DEBUG_VALUE: vector:this <- %R5
	@DEBUG_VALUE: Reverberation:this <- %R4
.Ltmp4:
	mov	r6, r0
.Ltmp29:
	.loc	9 160 37                @ /usr/bin/../lib/gcc/arm-linux-gnueabihf/6.3.0/../../../../include/c++/6.3.0/bits/stl_vector.h:160:37
	ldr	r0, [r5]
.Ltmp30:
	@DEBUG_VALUE: _M_deallocate:__p <- %R0
	@DEBUG_VALUE: deallocate:__p <- %R0
	@DEBUG_VALUE: deallocate:__p <- %R0
	.loc	9 177 6                 @ /usr/bin/../lib/gcc/arm-linux-gnueabihf/6.3.0/../../../../include/c++/6.3.0/bits/stl_vector.h:177:6
	cmp	r0, #0
	beq	.LBB0_7
.Ltmp31:
@ BB#6:
	@DEBUG_VALUE: deallocate:__p <- %R0
	@DEBUG_VALUE: deallocate:__p <- %R0
	@DEBUG_VALUE: _M_deallocate:__p <- %R0
	@DEBUG_VALUE: ~vector:this <- %R5
	@DEBUG_VALUE: _M_erase_at_end:this <- %R5
	@DEBUG_VALUE: size:this <- %R5
	@DEBUG_VALUE: size:this <- %R5
	@DEBUG_VALUE: resize:this <- %R5
	@DEBUG_VALUE: ~vector:this <- %R4
	@DEBUG_VALUE: size:this <- %R4
	@DEBUG_VALUE: size:this <- %R4
	@DEBUG_VALUE: resize:this <- %R4
	@DEBUG_VALUE: vector:this <- %R4
	@DEBUG_VALUE: vector:this <- %R5
	@DEBUG_VALUE: Reverberation:this <- %R4
	.loc	5 110 9                 @ /usr/bin/../lib/gcc/arm-linux-gnueabihf/6.3.0/../../../../include/c++/6.3.0/ext/new_allocator.h:110:9
	bl	_ZdlPv
.Ltmp32:
.LBB0_7:                                @ %_ZNSt6vectorIfSaIfEED2Ev.exit2
	@DEBUG_VALUE: ~vector:this <- %R5
	@DEBUG_VALUE: _M_erase_at_end:this <- %R5
	@DEBUG_VALUE: size:this <- %R5
	@DEBUG_VALUE: size:this <- %R5
	@DEBUG_VALUE: resize:this <- %R5
	@DEBUG_VALUE: ~vector:this <- %R4
	@DEBUG_VALUE: size:this <- %R4
	@DEBUG_VALUE: size:this <- %R4
	@DEBUG_VALUE: resize:this <- %R4
	@DEBUG_VALUE: vector:this <- %R4
	@DEBUG_VALUE: vector:this <- %R5
	@DEBUG_VALUE: Reverberation:this <- %R4
	.loc	9 160 37                @ /usr/bin/../lib/gcc/arm-linux-gnueabihf/6.3.0/../../../../include/c++/6.3.0/bits/stl_vector.h:160:37
	ldr	r0, [r4]
.Ltmp33:
	@DEBUG_VALUE: _M_deallocate:__p <- %R0
	@DEBUG_VALUE: deallocate:__p <- %R0
	@DEBUG_VALUE: deallocate:__p <- %R0
	.loc	9 177 6                 @ /usr/bin/../lib/gcc/arm-linux-gnueabihf/6.3.0/../../../../include/c++/6.3.0/bits/stl_vector.h:177:6
	cmp	r0, #0
	beq	.LBB0_9
.Ltmp34:
@ BB#8:
	@DEBUG_VALUE: deallocate:__p <- %R0
	@DEBUG_VALUE: deallocate:__p <- %R0
	@DEBUG_VALUE: _M_deallocate:__p <- %R0
	@DEBUG_VALUE: ~vector:this <- %R5
	@DEBUG_VALUE: _M_erase_at_end:this <- %R5
	@DEBUG_VALUE: size:this <- %R5
	@DEBUG_VALUE: size:this <- %R5
	@DEBUG_VALUE: resize:this <- %R5
	@DEBUG_VALUE: ~vector:this <- %R4
	@DEBUG_VALUE: size:this <- %R4
	@DEBUG_VALUE: size:this <- %R4
	@DEBUG_VALUE: resize:this <- %R4
	@DEBUG_VALUE: vector:this <- %R4
	@DEBUG_VALUE: vector:this <- %R5
	@DEBUG_VALUE: Reverberation:this <- %R4
	.loc	5 110 9                 @ /usr/bin/../lib/gcc/arm-linux-gnueabihf/6.3.0/../../../../include/c++/6.3.0/ext/new_allocator.h:110:9
	bl	_ZdlPv
.Ltmp35:
.LBB0_9:                                @ %_ZNSt6vectorIfSaIfEED2Ev.exit
	@DEBUG_VALUE: ~vector:this <- %R5
	@DEBUG_VALUE: _M_erase_at_end:this <- %R5
	@DEBUG_VALUE: size:this <- %R5
	@DEBUG_VALUE: size:this <- %R5
	@DEBUG_VALUE: resize:this <- %R5
	@DEBUG_VALUE: ~vector:this <- %R4
	@DEBUG_VALUE: size:this <- %R4
	@DEBUG_VALUE: size:this <- %R4
	@DEBUG_VALUE: resize:this <- %R4
	@DEBUG_VALUE: vector:this <- %R4
	@DEBUG_VALUE: vector:this <- %R5
	@DEBUG_VALUE: Reverberation:this <- %R4
	mov	r0, r6
	mov	lr, pc
	b	_Unwind_Resume
.Lfunc_end0:
	.size	_ZN13ReverberationC2Ev, .Lfunc_end0-_ZN13ReverberationC2Ev
	.cfi_endproc
	.file	35 "/root/Bela/projects/pedal_chain" "Reverberation.h"
	.globl	__gxx_personality_v0
	.personality __gxx_personality_v0
	.handlerdata
	.p2align	2
GCC_except_table0:
.Lexception0:
	.byte	255                     @ @LPStart Encoding = omit
	.byte	0                       @ @TType Encoding = absptr
	.asciz	"\234"                  @ @TType base offset
	.byte	3                       @ Call site Encoding = udata4
	.byte	26                      @ Call site table length
	.long	.Ltmp0-.Lfunc_begin0    @ >> Call Site 1 <<
	.long	.Ltmp3-.Ltmp0           @   Call between .Ltmp0 and .Ltmp3
	.long	.Ltmp4-.Lfunc_begin0    @     jumps to .Ltmp4
	.byte	0                       @   On action: cleanup
	.long	.Ltmp3-.Lfunc_begin0    @ >> Call Site 2 <<
	.long	.Lfunc_end0-.Ltmp3      @   Call between .Ltmp3 and .Lfunc_end0
	.long	0                       @     has no landing pad
	.byte	0                       @   On action: cleanup
	.p2align	2
	.fnend

	.globl	_ZN13Reverberation5resetEv
	.p2align	2
	.type	_ZN13Reverberation5resetEv,%function
_ZN13Reverberation5resetEv:             @ @_ZN13Reverberation5resetEv
.Lfunc_begin1:
	.loc	34 23 0                 @ /root/Bela/projects/pedal_chain/Reverberation.cpp:23:0
	.fnstart
	.cfi_startproc
@ BB#0:
	.save	{r4, r10, r11, lr}
	push	{r4, r10, r11, lr}
.Ltmp36:
	.cfi_def_cfa_offset 16
.Ltmp37:
	.cfi_offset lr, -4
.Ltmp38:
	.cfi_offset r11, -8
.Ltmp39:
	.cfi_offset r10, -12
.Ltmp40:
	.cfi_offset r4, -16
	.setfp	r11, sp, #8
	add	r11, sp, #8
.Ltmp41:
	.cfi_def_cfa r11, 8
	@DEBUG_VALUE: reset:this <- %R0
	mov	r4, r0
.Ltmp42:
	@DEBUG_VALUE: __fill_a<float *, int>:__last <- %R1
	@DEBUG_VALUE: __fill_a<float *, int>:__first <- %R0
	@DEBUG_VALUE: reset:this <- %R4
	.loc	10 777 20 prologue_end  @ /usr/bin/../lib/gcc/arm-linux-gnueabihf/6.3.0/../../../../include/c++/6.3.0/bits/stl_iterator.h:777:20
	ldm	r4, {r0, r1}
.Ltmp43:
	.file	36 "/usr/bin/../lib/gcc/arm-linux-gnueabihf/6.3.0/../../../../include/c++/6.3.0/bits" "stl_algobase.h"
	.loc	36 695 7 discriminator 1 @ /usr/bin/../lib/gcc/arm-linux-gnueabihf/6.3.0/../../../../include/c++/6.3.0/bits/stl_algobase.h:695:7
	cmp	r0, r1
	beq	.LBB1_2
.Ltmp44:
@ BB#1:                                 @ %.lr.ph.i.i7.preheader
	@DEBUG_VALUE: reset:this <- %R4
	.loc	36 696 11               @ /usr/bin/../lib/gcc/arm-linux-gnueabihf/6.3.0/../../../../include/c++/6.3.0/bits/stl_algobase.h:696:11
	sub	r1, r1, #4
	sub	r1, r1, r0
	add	r2, r1, #4
	mov	r1, #0
	bfc	r2, #0, #2
	bl	memset
.Ltmp45:
.LBB1_2:                                @ %_ZSt4fillIN9__gnu_cxx17__normal_iteratorIPfSt6vectorIfSaIfEEEEiEvT_S7_RKT0_.exit9
	@DEBUG_VALUE: reset:this <- %R4
	@DEBUG_VALUE: __fill_a<float *, int>:__first <- %R0
	@DEBUG_VALUE: __fill_a<float *, int>:__last <- %R1
	.loc	10 777 20               @ /usr/bin/../lib/gcc/arm-linux-gnueabihf/6.3.0/../../../../include/c++/6.3.0/bits/stl_iterator.h:777:20
	ldr	r0, [r4, #12]
.Ltmp46:
	.loc	10 777 20 is_stmt 0     @ /usr/bin/../lib/gcc/arm-linux-gnueabihf/6.3.0/../../../../include/c++/6.3.0/bits/stl_iterator.h:777:20
	ldr	r1, [r4, #16]
.Ltmp47:
	.loc	36 695 7 is_stmt 1 discriminator 1 @ /usr/bin/../lib/gcc/arm-linux-gnueabihf/6.3.0/../../../../include/c++/6.3.0/bits/stl_algobase.h:695:7
	cmp	r0, r1
	beq	.LBB1_4
.Ltmp48:
@ BB#3:                                 @ %.lr.ph.i.i.preheader
	@DEBUG_VALUE: reset:this <- %R4
	.loc	36 696 11               @ /usr/bin/../lib/gcc/arm-linux-gnueabihf/6.3.0/../../../../include/c++/6.3.0/bits/stl_algobase.h:696:11
	sub	r1, r1, #4
	sub	r1, r1, r0
	add	r2, r1, #4
	mov	r1, #0
	bfc	r2, #0, #2
	bl	memset
.Ltmp49:
.LBB1_4:                                @ %_ZSt4fillIN9__gnu_cxx17__normal_iteratorIPfSt6vectorIfSaIfEEEEiEvT_S7_RKT0_.exit
	@DEBUG_VALUE: reset:this <- %R4
	.loc	34 27 15                @ /root/Bela/projects/pedal_chain/Reverberation.cpp:27:15
	vmov.i32	q8, #0x0
	.loc	34 26 2                 @ /root/Bela/projects/pedal_chain/Reverberation.cpp:26:2
	add	r0, r4, #24
	.loc	34 27 15                @ /root/Bela/projects/pedal_chain/Reverberation.cpp:27:15
	vst1.32	{d16, d17}, [r0]
	.loc	34 30 1                 @ /root/Bela/projects/pedal_chain/Reverberation.cpp:30:1
	pop	{r4, r10, r11, pc}
.Ltmp50:
.Lfunc_end1:
	.size	_ZN13Reverberation5resetEv, .Lfunc_end1-_ZN13Reverberation5resetEv
	.cfi_endproc
	.file	37 "/usr/bin/../lib/gcc/arm-linux-gnueabihf/6.3.0/../../../../include/c++/6.3.0/ext" "type_traits.h"
	.fnend

	.globl	_ZN13Reverberation7processEff
	.p2align	2
	.type	_ZN13Reverberation7processEff,%function
_ZN13Reverberation7processEff:          @ @_ZN13Reverberation7processEff
.Lfunc_begin2:
	.loc	34 34 0                 @ /root/Bela/projects/pedal_chain/Reverberation.cpp:34:0
	.fnstart
	.cfi_startproc
@ BB#0:
	.save	{r4, r5, r6, r7, r8, r9, r11, lr}
	push	{r4, r5, r6, r7, r8, r9, r11, lr}
.Ltmp51:
	.cfi_def_cfa_offset 32
.Ltmp52:
	.cfi_offset lr, -4
.Ltmp53:
	.cfi_offset r11, -8
.Ltmp54:
	.cfi_offset r9, -12
.Ltmp55:
	.cfi_offset r8, -16
.Ltmp56:
	.cfi_offset r7, -20
.Ltmp57:
	.cfi_offset r6, -24
.Ltmp58:
	.cfi_offset r5, -28
.Ltmp59:
	.cfi_offset r4, -32
	.setfp	r11, sp, #24
	add	r11, sp, #24
.Ltmp60:
	.cfi_def_cfa r11, 8
	.vsave	{d8, d9, d10}
	vpush	{d8, d9, d10}
.Ltmp61:
	.cfi_offset d10, -40
.Ltmp62:
	.cfi_offset d9, -48
.Ltmp63:
	.cfi_offset d8, -56
	@DEBUG_VALUE: process:this <- %R0
	@DEBUG_VALUE: process:in <- %S0
	@DEBUG_VALUE: process:value <- %S1
	vmov.f32	s2, s1
.Ltmp64:
	@DEBUG_VALUE: process:value <- %S2
	mov	r4, r0
.Ltmp65:
	@DEBUG_VALUE: process:this <- %R4
	vmov.f64	d8, d0
.Ltmp66:
	@DEBUG_VALUE: process:in <- %S16
	.loc	9 656 40 prologue_end   @ /usr/bin/../lib/gcc/arm-linux-gnueabihf/6.3.0/../../../../include/c++/6.3.0/bits/stl_vector.h:656:40
	ldr	r0, [r4, #4]
	.loc	9 656 66 is_stmt 0      @ /usr/bin/../lib/gcc/arm-linux-gnueabihf/6.3.0/../../../../include/c++/6.3.0/bits/stl_vector.h:656:66
	ldr	r8, [r4]
.Ltmp67:
	@DEBUG_VALUE: process:attenuate <- 5.000000e-01
	.loc	34 39 18 is_stmt 1      @ /root/Bela/projects/pedal_chain/Reverberation.cpp:39:18
	ldr	r5, [r4, #24]
.Ltmp68:
	@DEBUG_VALUE: operator[]:__n <- %R5
	@DEBUG_VALUE: operator[]:__n <- %R5
	.loc	9 656 50                @ /usr/bin/../lib/gcc/arm-linux-gnueabihf/6.3.0/../../../../include/c++/6.3.0/bits/stl_vector.h:656:50
	sub	r9, r0, r8
.Ltmp69:
	.file	38 "./include" "Utilities.h"
	.loc	38 73 44                @ ./include/Utilities.h:73:44
	vldr	s0, .LCPI2_0
.Ltmp70:
	@DEBUG_VALUE: map:out_max <- 2.205000e+04
	@DEBUG_VALUE: map:out_min <- 1.000000e+00
	@DEBUG_VALUE: map:in_max <- 1.000000e+00
	@DEBUG_VALUE: map:in_min <- 0.000000e+00
	.loc	38 73 64 is_stmt 0      @ ./include/Utilities.h:73:64
	vmov.f32	d16, #1.000000e+00
	.loc	38 73 44                @ ./include/Utilities.h:73:44
	vmul.f32	d17, d1, d0
	.loc	38 73 64                @ ./include/Utilities.h:73:64
	vadd.f32	d16, d17, d16
.Ltmp71:
	.loc	34 35 15 is_stmt 1      @ /root/Bela/projects/pedal_chain/Reverberation.cpp:35:15
	vcvt.s32.f32	d0, d16
	vmov	r1, s0
.Ltmp72:
	@DEBUG_VALUE: process:sample <- %R1
	.loc	34 39 32                @ /root/Bela/projects/pedal_chain/Reverberation.cpp:39:32
	sub	r6, r5, r1
.Ltmp73:
	.loc	9 656 50                @ /usr/bin/../lib/gcc/arm-linux-gnueabihf/6.3.0/../../../../include/c++/6.3.0/bits/stl_vector.h:656:50
	asr	r1, r9, #2
.Ltmp74:
	.loc	34 39 41                @ /root/Bela/projects/pedal_chain/Reverberation.cpp:39:41
	add	r0, r6, r9, asr #2
	.loc	34 39 64 is_stmt 0      @ /root/Bela/projects/pedal_chain/Reverberation.cpp:39:64
	bl	__aeabi_uidivmod
.Ltmp75:
	.loc	9 781 41 is_stmt 1      @ /usr/bin/../lib/gcc/arm-linux-gnueabihf/6.3.0/../../../../include/c++/6.3.0/bits/stl_vector.h:781:41
	add	r0, r8, r1, lsl #2
.Ltmp76:
	.loc	34 39 15                @ /root/Bela/projects/pedal_chain/Reverberation.cpp:39:15
	str	r1, [r4, #28]
	.loc	34 40 41                @ /root/Bela/projects/pedal_chain/Reverberation.cpp:40:41
	vmov.f32	d9, #5.000000e-01
	.loc	34 40 14 is_stmt 0      @ /root/Bela/projects/pedal_chain/Reverberation.cpp:40:14
	vldr	s0, [r0]
	.loc	34 42 17 is_stmt 1      @ /root/Bela/projects/pedal_chain/Reverberation.cpp:42:17
	str	r5, [r4, #32]
	.loc	34 40 41                @ /root/Bela/projects/pedal_chain/Reverberation.cpp:40:41
	vmul.f32	d10, d0, d9
.Ltmp77:
	@DEBUG_VALUE: process:out <- %S20
	.loc	9 781 32                @ /usr/bin/../lib/gcc/arm-linux-gnueabihf/6.3.0/../../../../include/c++/6.3.0/bits/stl_vector.h:781:32
	ldr	r7, [r4, #12]
	.loc	9 781 41 is_stmt 0      @ /usr/bin/../lib/gcc/arm-linux-gnueabihf/6.3.0/../../../../include/c++/6.3.0/bits/stl_vector.h:781:41
	add	r0, r7, r5, lsl #2
.Ltmp78:
	.loc	34 43 32 is_stmt 1      @ /root/Bela/projects/pedal_chain/Reverberation.cpp:43:32
	vstr	s20, [r0]
.Ltmp79:
	.loc	9 656 40                @ /usr/bin/../lib/gcc/arm-linux-gnueabihf/6.3.0/../../../../include/c++/6.3.0/bits/stl_vector.h:656:40
	ldr	r0, [r4, #16]
	.loc	9 656 50 is_stmt 0      @ /usr/bin/../lib/gcc/arm-linux-gnueabihf/6.3.0/../../../../include/c++/6.3.0/bits/stl_vector.h:656:50
	sub	r1, r0, r7
.Ltmp80:
	.loc	34 45 43 is_stmt 1      @ /root/Bela/projects/pedal_chain/Reverberation.cpp:45:43
	add	r0, r6, r1, asr #2
.Ltmp81:
	.loc	9 656 50                @ /usr/bin/../lib/gcc/arm-linux-gnueabihf/6.3.0/../../../../include/c++/6.3.0/bits/stl_vector.h:656:50
	asr	r1, r1, #2
.Ltmp82:
	.loc	34 45 67                @ /root/Bela/projects/pedal_chain/Reverberation.cpp:45:67
	bl	__aeabi_uidivmod
	.loc	34 53 9                 @ /root/Bela/projects/pedal_chain/Reverberation.cpp:53:9
	vcvt.f64.f32	d16, s20
.Ltmp83:
	.loc	9 781 41                @ /usr/bin/../lib/gcc/arm-linux-gnueabihf/6.3.0/../../../../include/c++/6.3.0/bits/stl_vector.h:781:41
	add	r0, r7, r1, lsl #2
.Ltmp84:
	.loc	34 45 16                @ /root/Bela/projects/pedal_chain/Reverberation.cpp:45:16
	str	r1, [r4, #36]
	.loc	34 53 13                @ /root/Bela/projects/pedal_chain/Reverberation.cpp:53:13
	vmov.f64	d17, #5.000000e-01
	vmul.f64	d16, d16, d17
	.loc	34 53 21 is_stmt 0      @ /root/Bela/projects/pedal_chain/Reverberation.cpp:53:21
	vcvt.f64.f32	d17, s16
	.loc	34 46 14 is_stmt 1      @ /root/Bela/projects/pedal_chain/Reverberation.cpp:46:14
	vldr	s0, [r0]
.Ltmp85:
	.loc	9 781 41                @ /usr/bin/../lib/gcc/arm-linux-gnueabihf/6.3.0/../../../../include/c++/6.3.0/bits/stl_vector.h:781:41
	add	r0, r8, r5, lsl #2
.Ltmp86:
	.loc	34 53 19                @ /root/Bela/projects/pedal_chain/Reverberation.cpp:53:19
	vadd.f64	d16, d16, d17
	.loc	34 46 43                @ /root/Bela/projects/pedal_chain/Reverberation.cpp:46:43
	vmul.f32	d17, d0, d9
	.loc	34 53 9                 @ /root/Bela/projects/pedal_chain/Reverberation.cpp:53:9
	vcvt.f32.f64	s0, d16
.Ltmp87:
	@DEBUG_VALUE: process:in2 <- undef
	.loc	34 48 35                @ /root/Bela/projects/pedal_chain/Reverberation.cpp:48:35
	vadd.f32	d1, d17, d8
	.loc	34 48 30 is_stmt 0      @ /root/Bela/projects/pedal_chain/Reverberation.cpp:48:30
	vstr	s2, [r0]
	.loc	34 49 15 is_stmt 1      @ /root/Bela/projects/pedal_chain/Reverberation.cpp:49:15
	add	r0, r5, #1
	.loc	34 50 6                 @ /root/Bela/projects/pedal_chain/Reverberation.cpp:50:6
	cmp	r0, r9, asr #2
	movhs	r0, #0
.Ltmp88:
	.loc	34 51 17                @ /root/Bela/projects/pedal_chain/Reverberation.cpp:51:17
	str	r0, [r4, #24]
.Ltmp89:
	.loc	34 53 2                 @ /root/Bela/projects/pedal_chain/Reverberation.cpp:53:2
	vpop	{d8, d9, d10}
.Ltmp90:
	pop	{r4, r5, r6, r7, r8, r9, r11, pc}
.Ltmp91:
	.p2align	2
@ BB#1:
.LCPI2_0:
	.long	1185694208              @ float 22049
.Lfunc_end2:
	.size	_ZN13Reverberation7processEff, .Lfunc_end2-_ZN13Reverberation7processEff
	.cfi_endproc
	.fnend

	.section	.text._ZNSt6vectorIfSaIfEE17_M_default_appendEj,"axG",%progbits,_ZNSt6vectorIfSaIfEE17_M_default_appendEj,comdat
	.weak	_ZNSt6vectorIfSaIfEE17_M_default_appendEj
	.p2align	2
	.type	_ZNSt6vectorIfSaIfEE17_M_default_appendEj,%function
_ZNSt6vectorIfSaIfEE17_M_default_appendEj: @ @_ZNSt6vectorIfSaIfEE17_M_default_appendEj
.Lfunc_begin3:
	.file	39 "/usr/bin/../lib/gcc/arm-linux-gnueabihf/6.3.0/../../../../include/c++/6.3.0/bits" "vector.tcc"
	.loc	39 542 0                @ /usr/bin/../lib/gcc/arm-linux-gnueabihf/6.3.0/../../../../include/c++/6.3.0/bits/vector.tcc:542:0
	.fnstart
	.cfi_startproc
@ BB#0:
	.save	{r4, r5, r6, r7, r8, r10, r11, lr}
	push	{r4, r5, r6, r7, r8, r10, r11, lr}
.Ltmp92:
	.cfi_def_cfa_offset 32
.Ltmp93:
	.cfi_offset lr, -4
.Ltmp94:
	.cfi_offset r11, -8
.Ltmp95:
	.cfi_offset r10, -12
.Ltmp96:
	.cfi_offset r8, -16
.Ltmp97:
	.cfi_offset r7, -20
.Ltmp98:
	.cfi_offset r6, -24
.Ltmp99:
	.cfi_offset r5, -28
.Ltmp100:
	.cfi_offset r4, -32
	.setfp	r11, sp, #24
	add	r11, sp, #24
.Ltmp101:
	.cfi_def_cfa r11, 8
	@DEBUG_VALUE: _M_default_append:this <- %R0
	@DEBUG_VALUE: _M_default_append:__n <- %R1
	mov	r5, r1
.Ltmp102:
	@DEBUG_VALUE: _M_default_append:__n <- %R5
	mov	r4, r0
.Ltmp103:
	@DEBUG_VALUE: _M_default_append:this <- %R4
	.loc	39 543 11 prologue_end  @ /usr/bin/../lib/gcc/arm-linux-gnueabihf/6.3.0/../../../../include/c++/6.3.0/bits/vector.tcc:543:11
	cmp	r5, #0
	beq	.LBB3_11
.Ltmp104:
@ BB#1:
	@DEBUG_VALUE: _M_default_append:this <- %R4
	@DEBUG_VALUE: _M_default_append:__n <- %R5
	@DEBUG_VALUE: __fill_n_a<float *, unsigned int, float>:__first <- %R7
	@DEBUG_VALUE: fill_n<float *, unsigned int, float>:__first <- %R7
	@DEBUG_VALUE: __uninit_default_n<float *, unsigned int>:__first <- %R7
	@DEBUG_VALUE: __uninitialized_default_n<float *, unsigned int>:__first <- %R7
	@DEBUG_VALUE: __uninitialized_default_n_a<float *, unsigned int, float>:__first <- %R7
	.loc	39 546 20               @ /usr/bin/../lib/gcc/arm-linux-gnueabihf/6.3.0/../../../../include/c++/6.3.0/bits/vector.tcc:546:20
	ldr	r7, [r4, #4]
.Ltmp105:
	.loc	39 545 32               @ /usr/bin/../lib/gcc/arm-linux-gnueabihf/6.3.0/../../../../include/c++/6.3.0/bits/vector.tcc:545:32
	ldr	r0, [r4, #8]
	.loc	39 546 4                @ /usr/bin/../lib/gcc/arm-linux-gnueabihf/6.3.0/../../../../include/c++/6.3.0/bits/vector.tcc:546:4
	sub	r0, r0, r7
	asr	r0, r0, #2
.Ltmp106:
	.loc	39 545 8                @ /usr/bin/../lib/gcc/arm-linux-gnueabihf/6.3.0/../../../../include/c++/6.3.0/bits/vector.tcc:545:8
	cmp	r0, r5
	bhs	.LBB3_12
.Ltmp107:
@ BB#2:
	@DEBUG_VALUE: _M_default_append:this <- %R4
	@DEBUG_VALUE: _M_default_append:__n <- %R5
	@DEBUG_VALUE: size:this <- %R4
	.loc	9 656 66                @ /usr/bin/../lib/gcc/arm-linux-gnueabihf/6.3.0/../../../../include/c++/6.3.0/bits/stl_vector.h:656:66
	ldr	r1, [r4]
.Ltmp108:
	.loc	9 1422 17               @ /usr/bin/../lib/gcc/arm-linux-gnueabihf/6.3.0/../../../../include/c++/6.3.0/bits/stl_vector.h:1422:17
	mvn	r8, #-1073741824
.Ltmp109:
	.loc	9 656 50                @ /usr/bin/../lib/gcc/arm-linux-gnueabihf/6.3.0/../../../../include/c++/6.3.0/bits/stl_vector.h:656:50
	sub	r0, r7, r1
.Ltmp110:
	.loc	9 1422 17               @ /usr/bin/../lib/gcc/arm-linux-gnueabihf/6.3.0/../../../../include/c++/6.3.0/bits/stl_vector.h:1422:17
	sub	r2, r8, r0, asr #2
.Ltmp111:
	@DEBUG_VALUE: _M_check_len:__n <- %R5
	.loc	9 1422 6 is_stmt 0      @ /usr/bin/../lib/gcc/arm-linux-gnueabihf/6.3.0/../../../../include/c++/6.3.0/bits/stl_vector.h:1422:6
	cmp	r2, r5
	blo	.LBB3_13
.Ltmp112:
@ BB#3:                                 @ %_ZNKSt6vectorIfSaIfEE12_M_check_lenEjPKc.exit
	@DEBUG_VALUE: _M_check_len:__n <- %R5
	@DEBUG_VALUE: size:this <- %R4
	@DEBUG_VALUE: _M_default_append:this <- %R4
	@DEBUG_VALUE: _M_default_append:__n <- %R5
	.loc	9 656 50 is_stmt 1      @ /usr/bin/../lib/gcc/arm-linux-gnueabihf/6.3.0/../../../../include/c++/6.3.0/bits/stl_vector.h:656:50
	asr	r0, r0, #2
.Ltmp113:
	.loc	9 1425 35               @ /usr/bin/../lib/gcc/arm-linux-gnueabihf/6.3.0/../../../../include/c++/6.3.0/bits/stl_vector.h:1425:35
	cmp	r0, r5
	mov	r2, r0
	mov	r6, #0
	movlo	r2, r5
	add	r0, r2, r0
	.loc	9 1426 25               @ /usr/bin/../lib/gcc/arm-linux-gnueabihf/6.3.0/../../../../include/c++/6.3.0/bits/stl_vector.h:1426:25
	cmp	r6, r0, lsr #30
	mov	r3, r0
	mvnne	r3, #-1073741824
	cmp	r0, r2
	movhs	r8, r3
.Ltmp114:
	@DEBUG_VALUE: _M_allocate:__n <- %R8
	@DEBUG_VALUE: __len <- %R8
	@DEBUG_VALUE: allocate:__n <- %R8
	@DEBUG_VALUE: allocate:__n <- %R8
	.loc	9 170 9                 @ /usr/bin/../lib/gcc/arm-linux-gnueabihf/6.3.0/../../../../include/c++/6.3.0/bits/stl_vector.h:170:9
	cmp	r8, #0
.Ltmp115:
	@DEBUG_VALUE: _M_check_len:__len <- %R0
	beq	.LBB3_6
.Ltmp116:
@ BB#4:
	@DEBUG_VALUE: _M_check_len:__len <- %R0
	@DEBUG_VALUE: allocate:__n <- %R8
	@DEBUG_VALUE: allocate:__n <- %R8
	@DEBUG_VALUE: __len <- %R8
	@DEBUG_VALUE: _M_allocate:__n <- %R8
	@DEBUG_VALUE: _M_check_len:__n <- %R5
	@DEBUG_VALUE: size:this <- %R4
	@DEBUG_VALUE: _M_default_append:this <- %R4
	@DEBUG_VALUE: _M_default_append:__n <- %R5
	.loc	5 101 6                 @ /usr/bin/../lib/gcc/arm-linux-gnueabihf/6.3.0/../../../../include/c++/6.3.0/ext/new_allocator.h:101:6
	cmp	r8, #1073741824
	bhs	.LBB3_14
.Ltmp117:
@ BB#5:                                 @ %_ZNSt16allocator_traitsISaIfEE8allocateERS0_j.exit.i
	@DEBUG_VALUE: _M_check_len:__len <- %R0
	@DEBUG_VALUE: allocate:__n <- %R8
	@DEBUG_VALUE: allocate:__n <- %R8
	@DEBUG_VALUE: __len <- %R8
	@DEBUG_VALUE: _M_allocate:__n <- %R8
	@DEBUG_VALUE: _M_check_len:__n <- %R5
	@DEBUG_VALUE: size:this <- %R4
	@DEBUG_VALUE: _M_default_append:this <- %R4
	@DEBUG_VALUE: _M_default_append:__n <- %R5
	.loc	5 104 46                @ /usr/bin/../lib/gcc/arm-linux-gnueabihf/6.3.0/../../../../include/c++/6.3.0/ext/new_allocator.h:104:46
	lsl	r0, r8, #2
.Ltmp118:
	.loc	5 104 27 is_stmt 0      @ /usr/bin/../lib/gcc/arm-linux-gnueabihf/6.3.0/../../../../include/c++/6.3.0/ext/new_allocator.h:104:27
	bl	_Znwj
.Ltmp119:
	.loc	39 563 22 is_stmt 1     @ /usr/bin/../lib/gcc/arm-linux-gnueabihf/6.3.0/../../../../include/c++/6.3.0/bits/vector.tcc:563:22
	ldm	r4, {r1, r7}
.Ltmp120:
	@DEBUG_VALUE: size:this <- %R4
	.loc	5 104 27                @ /usr/bin/../lib/gcc/arm-linux-gnueabihf/6.3.0/../../../../include/c++/6.3.0/ext/new_allocator.h:104:27
	mov	r6, r0
.Ltmp121:
.LBB3_6:                                @ %_ZNSt12_Vector_baseIfSaIfEE11_M_allocateEj.exit
	@DEBUG_VALUE: allocate:__n <- %R8
	@DEBUG_VALUE: allocate:__n <- %R8
	@DEBUG_VALUE: __len <- %R8
	@DEBUG_VALUE: _M_allocate:__n <- %R8
	@DEBUG_VALUE: _M_check_len:__n <- %R5
	@DEBUG_VALUE: size:this <- %R4
	@DEBUG_VALUE: _M_default_append:this <- %R4
	@DEBUG_VALUE: _M_default_append:__n <- %R5
	@DEBUG_VALUE: __uninitialized_move_if_noexcept_a<float *, float *, std::allocator<float> >:__first <- %R1
	@DEBUG_VALUE: uninitialized_copy<std::move_iterator<float *>, float *>:__assignable <- 1
	@DEBUG_VALUE: __copy_move_a<true, float *, float *>:__simple <- 1
	.loc	36 366 34               @ /usr/bin/../lib/gcc/arm-linux-gnueabihf/6.3.0/../../../../include/c++/6.3.0/bits/stl_algobase.h:366:34
	sub	r2, r7, r1
	mov	r0, #0
	asr	r7, r2, #2
.Ltmp122:
	@DEBUG_VALUE: __copy_m<float>:_Num <- %R7
	.loc	36 367 8                @ /usr/bin/../lib/gcc/arm-linux-gnueabihf/6.3.0/../../../../include/c++/6.3.0/bits/stl_algobase.h:367:8
	cmp	r0, r2, asr #2
	beq	.LBB3_8
.Ltmp123:
@ BB#7:
	@DEBUG_VALUE: __copy_m<float>:_Num <- %R7
	@DEBUG_VALUE: __uninitialized_move_if_noexcept_a<float *, float *, std::allocator<float> >:__first <- %R1
	@DEBUG_VALUE: allocate:__n <- %R8
	@DEBUG_VALUE: allocate:__n <- %R8
	@DEBUG_VALUE: __len <- %R8
	@DEBUG_VALUE: _M_allocate:__n <- %R8
	@DEBUG_VALUE: _M_check_len:__n <- %R5
	@DEBUG_VALUE: size:this <- %R4
	@DEBUG_VALUE: _M_default_append:this <- %R4
	@DEBUG_VALUE: _M_default_append:__n <- %R5
	.loc	36 368 6                @ /usr/bin/../lib/gcc/arm-linux-gnueabihf/6.3.0/../../../../include/c++/6.3.0/bits/stl_algobase.h:368:6
	mov	r0, r6
	bl	memmove
.Ltmp124:
	@DEBUG_VALUE: __uninitialized_move_if_noexcept_a<float *, float *, std::allocator<float> >:__result <- %R6
.LBB3_8:
	@DEBUG_VALUE: __copy_m<float>:_Num <- %R7
	@DEBUG_VALUE: allocate:__n <- %R8
	@DEBUG_VALUE: allocate:__n <- %R8
	@DEBUG_VALUE: __len <- %R8
	@DEBUG_VALUE: _M_allocate:__n <- %R8
	@DEBUG_VALUE: _M_check_len:__n <- %R5
	@DEBUG_VALUE: size:this <- %R4
	@DEBUG_VALUE: _M_default_append:this <- %R4
	@DEBUG_VALUE: _M_default_append:__n <- %R5
	.loc	36 369 20               @ /usr/bin/../lib/gcc/arm-linux-gnueabihf/6.3.0/../../../../include/c++/6.3.0/bits/stl_algobase.h:369:20
	add	r7, r6, r7, lsl #2
.Ltmp125:
	@DEBUG_VALUE: __niter <- %R5
	@DEBUG_VALUE: __fill_n_a<float *, unsigned int, float>:__first <- %R7
	@DEBUG_VALUE: fill_n<float *, unsigned int, float>:__first <- %R7
	@DEBUG_VALUE: __uninit_default_n<float *, unsigned int>:__first <- %R7
	@DEBUG_VALUE: __uninitialized_default_n<float *, unsigned int>:__assignable <- 1
	@DEBUG_VALUE: __uninitialized_default_n<float *, unsigned int>:__first <- %R7
	@DEBUG_VALUE: __uninitialized_default_n_a<float *, unsigned int, float>:__first <- %R7
	@DEBUG_VALUE: __new_finish <- %R7
	.loc	36 754 11               @ /usr/bin/../lib/gcc/arm-linux-gnueabihf/6.3.0/../../../../include/c++/6.3.0/bits/stl_algobase.h:754:11
	lsl	r2, r5, #2
	mov	r1, #0
	mov	r0, r7
	bl	memset
.Ltmp126:
	.loc	39 578 36               @ /usr/bin/../lib/gcc/arm-linux-gnueabihf/6.3.0/../../../../include/c++/6.3.0/bits/vector.tcc:578:36
	ldr	r0, [r4]
.Ltmp127:
	@DEBUG_VALUE: _M_deallocate:__p <- %R0
	@DEBUG_VALUE: deallocate:__p <- %R0
	@DEBUG_VALUE: deallocate:__p <- %R0
	.loc	36 754 11               @ /usr/bin/../lib/gcc/arm-linux-gnueabihf/6.3.0/../../../../include/c++/6.3.0/bits/stl_algobase.h:754:11
	add	r5, r7, r5, lsl #2
.Ltmp128:
	@DEBUG_VALUE: __new_finish <- %R5
	.loc	9 177 6                 @ /usr/bin/../lib/gcc/arm-linux-gnueabihf/6.3.0/../../../../include/c++/6.3.0/bits/stl_vector.h:177:6
	cmp	r0, #0
	beq	.LBB3_10
.Ltmp129:
@ BB#9:
	@DEBUG_VALUE: __new_finish <- %R5
	@DEBUG_VALUE: deallocate:__p <- %R0
	@DEBUG_VALUE: deallocate:__p <- %R0
	@DEBUG_VALUE: _M_deallocate:__p <- %R0
	@DEBUG_VALUE: __uninitialized_default_n_a<float *, unsigned int, float>:__first <- %R7
	@DEBUG_VALUE: __uninitialized_default_n<float *, unsigned int>:__first <- %R7
	@DEBUG_VALUE: __uninit_default_n<float *, unsigned int>:__first <- %R7
	@DEBUG_VALUE: fill_n<float *, unsigned int, float>:__first <- %R7
	@DEBUG_VALUE: __fill_n_a<float *, unsigned int, float>:__first <- %R7
	@DEBUG_VALUE: allocate:__n <- %R8
	@DEBUG_VALUE: allocate:__n <- %R8
	@DEBUG_VALUE: __len <- %R8
	@DEBUG_VALUE: _M_allocate:__n <- %R8
	@DEBUG_VALUE: size:this <- %R4
	@DEBUG_VALUE: _M_default_append:this <- %R4
	.loc	5 110 9                 @ /usr/bin/../lib/gcc/arm-linux-gnueabihf/6.3.0/../../../../include/c++/6.3.0/ext/new_allocator.h:110:9
	bl	_ZdlPv
.Ltmp130:
.LBB3_10:                               @ %_ZNSt12_Vector_baseIfSaIfEE13_M_deallocateEPfj.exit31
	@DEBUG_VALUE: __new_finish <- %R5
	@DEBUG_VALUE: __uninitialized_default_n_a<float *, unsigned int, float>:__first <- %R7
	@DEBUG_VALUE: __uninitialized_default_n<float *, unsigned int>:__first <- %R7
	@DEBUG_VALUE: __uninit_default_n<float *, unsigned int>:__first <- %R7
	@DEBUG_VALUE: fill_n<float *, unsigned int, float>:__first <- %R7
	@DEBUG_VALUE: __fill_n_a<float *, unsigned int, float>:__first <- %R7
	@DEBUG_VALUE: allocate:__n <- %R8
	@DEBUG_VALUE: allocate:__n <- %R8
	@DEBUG_VALUE: __len <- %R8
	@DEBUG_VALUE: _M_allocate:__n <- %R8
	@DEBUG_VALUE: size:this <- %R4
	@DEBUG_VALUE: _M_default_append:this <- %R4
	.loc	39 581 31               @ /usr/bin/../lib/gcc/arm-linux-gnueabihf/6.3.0/../../../../include/c++/6.3.0/bits/vector.tcc:581:31
	str	r6, [r4]
	.loc	39 583 54               @ /usr/bin/../lib/gcc/arm-linux-gnueabihf/6.3.0/../../../../include/c++/6.3.0/bits/vector.tcc:583:54
	add	r0, r6, r8, lsl #2
	.loc	39 582 32               @ /usr/bin/../lib/gcc/arm-linux-gnueabihf/6.3.0/../../../../include/c++/6.3.0/bits/vector.tcc:582:32
	str	r5, [r4, #4]
	.loc	39 583 40               @ /usr/bin/../lib/gcc/arm-linux-gnueabihf/6.3.0/../../../../include/c++/6.3.0/bits/vector.tcc:583:40
	str	r0, [r4, #8]
.Ltmp131:
.LBB3_11:
	@DEBUG_VALUE: _M_default_append:this <- %R4
	.loc	39 586 5 discriminator 2 @ /usr/bin/../lib/gcc/arm-linux-gnueabihf/6.3.0/../../../../include/c++/6.3.0/bits/vector.tcc:586:5
	pop	{r4, r5, r6, r7, r8, r10, r11, pc}
.Ltmp132:
.LBB3_12:                               @ %_ZSt27__uninitialized_default_n_aIPfjfET_S1_T0_RSaIT1_E.exit
	@DEBUG_VALUE: _M_default_append:this <- %R4
	@DEBUG_VALUE: _M_default_append:__n <- %R5
	@DEBUG_VALUE: __uninitialized_default_n<float *, unsigned int>:__assignable <- 1
	@DEBUG_VALUE: __niter <- %R5
	.loc	36 754 11               @ /usr/bin/../lib/gcc/arm-linux-gnueabihf/6.3.0/../../../../include/c++/6.3.0/bits/stl_algobase.h:754:11
	lsl	r2, r5, #2
	mov	r0, r7
	mov	r1, #0
	bl	memset
	add	r0, r7, r5, lsl #2
.Ltmp133:
	.loc	39 548 32               @ /usr/bin/../lib/gcc/arm-linux-gnueabihf/6.3.0/../../../../include/c++/6.3.0/bits/vector.tcc:548:32
	str	r0, [r4, #4]
.Ltmp134:
	.loc	39 586 5 discriminator 2 @ /usr/bin/../lib/gcc/arm-linux-gnueabihf/6.3.0/../../../../include/c++/6.3.0/bits/vector.tcc:586:5
	pop	{r4, r5, r6, r7, r8, r10, r11, pc}
.Ltmp135:
.LBB3_13:
	@DEBUG_VALUE: _M_check_len:__n <- %R5
	@DEBUG_VALUE: size:this <- %R4
	@DEBUG_VALUE: _M_default_append:this <- %R4
	@DEBUG_VALUE: _M_default_append:__n <- %R5
	.loc	9 1423 4                @ /usr/bin/../lib/gcc/arm-linux-gnueabihf/6.3.0/../../../../include/c++/6.3.0/bits/stl_vector.h:1423:4
	movw	r0, :lower16:.L.str
	movt	r0, :upper16:.L.str
.Ltmp136:
	@DEBUG_VALUE: _M_check_len:__s <- %R0
	mov	lr, pc
	b	_ZSt20__throw_length_errorPKc
.Ltmp137:
.LBB3_14:
	@DEBUG_VALUE: _M_check_len:__len <- %R0
	@DEBUG_VALUE: allocate:__n <- %R8
	@DEBUG_VALUE: allocate:__n <- %R8
	@DEBUG_VALUE: __len <- %R8
	@DEBUG_VALUE: _M_allocate:__n <- %R8
	@DEBUG_VALUE: _M_check_len:__n <- %R5
	@DEBUG_VALUE: size:this <- %R4
	@DEBUG_VALUE: _M_default_append:this <- %R4
	@DEBUG_VALUE: _M_default_append:__n <- %R5
	.loc	5 102 4                 @ /usr/bin/../lib/gcc/arm-linux-gnueabihf/6.3.0/../../../../include/c++/6.3.0/ext/new_allocator.h:102:4
	mov	lr, pc
	b	_ZSt17__throw_bad_allocv
.Ltmp138:
.Lfunc_end3:
	.size	_ZNSt6vectorIfSaIfEE17_M_default_appendEj, .Lfunc_end3-_ZNSt6vectorIfSaIfEE17_M_default_appendEj
	.cfi_endproc
	.file	40 "/usr/bin/../lib/gcc/arm-linux-gnueabihf/6.3.0/../../../../include/c++/6.3.0/bits" "stl_uninitialized.h"
	.fnend

	.type	.L.str,%object          @ @.str
	.section	.rodata.str1.1,"aMS",%progbits,1
.L.str:
	.asciz	"vector::_M_default_append"
	.size	.L.str, 26

	.section	".note.GNU-stack","",%progbits
	.eabi_attribute	30, 2	@ Tag_ABI_optimization_goals